
ctarget:     file format elf64-x86-64


Disassembly of section .init:

0000000000400cb0 <_init>:
  400cb0:	48 83 ec 08          	sub    $0x8,%rsp
  400cb4:	48 8b 05 3d 43 20 00 	mov    0x20433d(%rip),%rax        # 604ff8 <__gmon_start__>
  400cbb:	48 85 c0             	test   %rax,%rax
  400cbe:	74 02                	je     400cc2 <_init+0x12>
  400cc0:	ff d0                	callq  *%rax
  400cc2:	48 83 c4 08          	add    $0x8,%rsp
  400cc6:	c3                   	retq   

Disassembly of section .plt:

0000000000400cd0 <.plt>:
  400cd0:	ff 35 32 43 20 00    	pushq  0x204332(%rip)        # 605008 <_GLOBAL_OFFSET_TABLE_+0x8>
  400cd6:	ff 25 34 43 20 00    	jmpq   *0x204334(%rip)        # 605010 <_GLOBAL_OFFSET_TABLE_+0x10>
  400cdc:	0f 1f 40 00          	nopl   0x0(%rax)

0000000000400ce0 <strcasecmp@plt>:
  400ce0:	ff 25 32 43 20 00    	jmpq   *0x204332(%rip)        # 605018 <strcasecmp@GLIBC_2.2.5>
  400ce6:	68 00 00 00 00       	pushq  $0x0
  400ceb:	e9 e0 ff ff ff       	jmpq   400cd0 <.plt>

0000000000400cf0 <__errno_location@plt>:
  400cf0:	ff 25 2a 43 20 00    	jmpq   *0x20432a(%rip)        # 605020 <__errno_location@GLIBC_2.2.5>
  400cf6:	68 01 00 00 00       	pushq  $0x1
  400cfb:	e9 d0 ff ff ff       	jmpq   400cd0 <.plt>

0000000000400d00 <srandom@plt>:
  400d00:	ff 25 22 43 20 00    	jmpq   *0x204322(%rip)        # 605028 <srandom@GLIBC_2.2.5>
  400d06:	68 02 00 00 00       	pushq  $0x2
  400d0b:	e9 c0 ff ff ff       	jmpq   400cd0 <.plt>

0000000000400d10 <strncpy@plt>:
  400d10:	ff 25 1a 43 20 00    	jmpq   *0x20431a(%rip)        # 605030 <strncpy@GLIBC_2.2.5>
  400d16:	68 03 00 00 00       	pushq  $0x3
  400d1b:	e9 b0 ff ff ff       	jmpq   400cd0 <.plt>

0000000000400d20 <strncmp@plt>:
  400d20:	ff 25 12 43 20 00    	jmpq   *0x204312(%rip)        # 605038 <strncmp@GLIBC_2.2.5>
  400d26:	68 04 00 00 00       	pushq  $0x4
  400d2b:	e9 a0 ff ff ff       	jmpq   400cd0 <.plt>

0000000000400d30 <strcpy@plt>:
  400d30:	ff 25 0a 43 20 00    	jmpq   *0x20430a(%rip)        # 605040 <strcpy@GLIBC_2.2.5>
  400d36:	68 05 00 00 00       	pushq  $0x5
  400d3b:	e9 90 ff ff ff       	jmpq   400cd0 <.plt>

0000000000400d40 <puts@plt>:
  400d40:	ff 25 02 43 20 00    	jmpq   *0x204302(%rip)        # 605048 <puts@GLIBC_2.2.5>
  400d46:	68 06 00 00 00       	pushq  $0x6
  400d4b:	e9 80 ff ff ff       	jmpq   400cd0 <.plt>

0000000000400d50 <write@plt>:
  400d50:	ff 25 fa 42 20 00    	jmpq   *0x2042fa(%rip)        # 605050 <write@GLIBC_2.2.5>
  400d56:	68 07 00 00 00       	pushq  $0x7
  400d5b:	e9 70 ff ff ff       	jmpq   400cd0 <.plt>

0000000000400d60 <mmap@plt>:
  400d60:	ff 25 f2 42 20 00    	jmpq   *0x2042f2(%rip)        # 605058 <mmap@GLIBC_2.2.5>
  400d66:	68 08 00 00 00       	pushq  $0x8
  400d6b:	e9 60 ff ff ff       	jmpq   400cd0 <.plt>

0000000000400d70 <memset@plt>:
  400d70:	ff 25 ea 42 20 00    	jmpq   *0x2042ea(%rip)        # 605060 <memset@GLIBC_2.2.5>
  400d76:	68 09 00 00 00       	pushq  $0x9
  400d7b:	e9 50 ff ff ff       	jmpq   400cd0 <.plt>

0000000000400d80 <alarm@plt>:
  400d80:	ff 25 e2 42 20 00    	jmpq   *0x2042e2(%rip)        # 605068 <alarm@GLIBC_2.2.5>
  400d86:	68 0a 00 00 00       	pushq  $0xa
  400d8b:	e9 40 ff ff ff       	jmpq   400cd0 <.plt>

0000000000400d90 <close@plt>:
  400d90:	ff 25 da 42 20 00    	jmpq   *0x2042da(%rip)        # 605070 <close@GLIBC_2.2.5>
  400d96:	68 0b 00 00 00       	pushq  $0xb
  400d9b:	e9 30 ff ff ff       	jmpq   400cd0 <.plt>

0000000000400da0 <read@plt>:
  400da0:	ff 25 d2 42 20 00    	jmpq   *0x2042d2(%rip)        # 605078 <read@GLIBC_2.2.5>
  400da6:	68 0c 00 00 00       	pushq  $0xc
  400dab:	e9 20 ff ff ff       	jmpq   400cd0 <.plt>

0000000000400db0 <strcmp@plt>:
  400db0:	ff 25 ca 42 20 00    	jmpq   *0x2042ca(%rip)        # 605080 <strcmp@GLIBC_2.2.5>
  400db6:	68 0d 00 00 00       	pushq  $0xd
  400dbb:	e9 10 ff ff ff       	jmpq   400cd0 <.plt>

0000000000400dc0 <signal@plt>:
  400dc0:	ff 25 c2 42 20 00    	jmpq   *0x2042c2(%rip)        # 605088 <signal@GLIBC_2.2.5>
  400dc6:	68 0e 00 00 00       	pushq  $0xe
  400dcb:	e9 00 ff ff ff       	jmpq   400cd0 <.plt>

0000000000400dd0 <gethostbyname@plt>:
  400dd0:	ff 25 ba 42 20 00    	jmpq   *0x2042ba(%rip)        # 605090 <gethostbyname@GLIBC_2.2.5>
  400dd6:	68 0f 00 00 00       	pushq  $0xf
  400ddb:	e9 f0 fe ff ff       	jmpq   400cd0 <.plt>

0000000000400de0 <__memmove_chk@plt>:
  400de0:	ff 25 b2 42 20 00    	jmpq   *0x2042b2(%rip)        # 605098 <__memmove_chk@GLIBC_2.3.4>
  400de6:	68 10 00 00 00       	pushq  $0x10
  400deb:	e9 e0 fe ff ff       	jmpq   400cd0 <.plt>

0000000000400df0 <strtol@plt>:
  400df0:	ff 25 aa 42 20 00    	jmpq   *0x2042aa(%rip)        # 6050a0 <strtol@GLIBC_2.2.5>
  400df6:	68 11 00 00 00       	pushq  $0x11
  400dfb:	e9 d0 fe ff ff       	jmpq   400cd0 <.plt>

0000000000400e00 <memcpy@plt>:
  400e00:	ff 25 a2 42 20 00    	jmpq   *0x2042a2(%rip)        # 6050a8 <memcpy@GLIBC_2.14>
  400e06:	68 12 00 00 00       	pushq  $0x12
  400e0b:	e9 c0 fe ff ff       	jmpq   400cd0 <.plt>

0000000000400e10 <time@plt>:
  400e10:	ff 25 9a 42 20 00    	jmpq   *0x20429a(%rip)        # 6050b0 <time@GLIBC_2.2.5>
  400e16:	68 13 00 00 00       	pushq  $0x13
  400e1b:	e9 b0 fe ff ff       	jmpq   400cd0 <.plt>

0000000000400e20 <random@plt>:
  400e20:	ff 25 92 42 20 00    	jmpq   *0x204292(%rip)        # 6050b8 <random@GLIBC_2.2.5>
  400e26:	68 14 00 00 00       	pushq  $0x14
  400e2b:	e9 a0 fe ff ff       	jmpq   400cd0 <.plt>

0000000000400e30 <_IO_getc@plt>:
  400e30:	ff 25 8a 42 20 00    	jmpq   *0x20428a(%rip)        # 6050c0 <_IO_getc@GLIBC_2.2.5>
  400e36:	68 15 00 00 00       	pushq  $0x15
  400e3b:	e9 90 fe ff ff       	jmpq   400cd0 <.plt>

0000000000400e40 <__isoc99_sscanf@plt>:
  400e40:	ff 25 82 42 20 00    	jmpq   *0x204282(%rip)        # 6050c8 <__isoc99_sscanf@GLIBC_2.7>
  400e46:	68 16 00 00 00       	pushq  $0x16
  400e4b:	e9 80 fe ff ff       	jmpq   400cd0 <.plt>

0000000000400e50 <munmap@plt>:
  400e50:	ff 25 7a 42 20 00    	jmpq   *0x20427a(%rip)        # 6050d0 <munmap@GLIBC_2.2.5>
  400e56:	68 17 00 00 00       	pushq  $0x17
  400e5b:	e9 70 fe ff ff       	jmpq   400cd0 <.plt>

0000000000400e60 <__printf_chk@plt>:
  400e60:	ff 25 72 42 20 00    	jmpq   *0x204272(%rip)        # 6050d8 <__printf_chk@GLIBC_2.3.4>
  400e66:	68 18 00 00 00       	pushq  $0x18
  400e6b:	e9 60 fe ff ff       	jmpq   400cd0 <.plt>

0000000000400e70 <fopen@plt>:
  400e70:	ff 25 6a 42 20 00    	jmpq   *0x20426a(%rip)        # 6050e0 <fopen@GLIBC_2.2.5>
  400e76:	68 19 00 00 00       	pushq  $0x19
  400e7b:	e9 50 fe ff ff       	jmpq   400cd0 <.plt>

0000000000400e80 <getopt@plt>:
  400e80:	ff 25 62 42 20 00    	jmpq   *0x204262(%rip)        # 6050e8 <getopt@GLIBC_2.2.5>
  400e86:	68 1a 00 00 00       	pushq  $0x1a
  400e8b:	e9 40 fe ff ff       	jmpq   400cd0 <.plt>

0000000000400e90 <strtoul@plt>:
  400e90:	ff 25 5a 42 20 00    	jmpq   *0x20425a(%rip)        # 6050f0 <strtoul@GLIBC_2.2.5>
  400e96:	68 1b 00 00 00       	pushq  $0x1b
  400e9b:	e9 30 fe ff ff       	jmpq   400cd0 <.plt>

0000000000400ea0 <gethostname@plt>:
  400ea0:	ff 25 52 42 20 00    	jmpq   *0x204252(%rip)        # 6050f8 <gethostname@GLIBC_2.2.5>
  400ea6:	68 1c 00 00 00       	pushq  $0x1c
  400eab:	e9 20 fe ff ff       	jmpq   400cd0 <.plt>

0000000000400eb0 <exit@plt>:
  400eb0:	ff 25 4a 42 20 00    	jmpq   *0x20424a(%rip)        # 605100 <exit@GLIBC_2.2.5>
  400eb6:	68 1d 00 00 00       	pushq  $0x1d
  400ebb:	e9 10 fe ff ff       	jmpq   400cd0 <.plt>

0000000000400ec0 <connect@plt>:
  400ec0:	ff 25 42 42 20 00    	jmpq   *0x204242(%rip)        # 605108 <connect@GLIBC_2.2.5>
  400ec6:	68 1e 00 00 00       	pushq  $0x1e
  400ecb:	e9 00 fe ff ff       	jmpq   400cd0 <.plt>

0000000000400ed0 <__fprintf_chk@plt>:
  400ed0:	ff 25 3a 42 20 00    	jmpq   *0x20423a(%rip)        # 605110 <__fprintf_chk@GLIBC_2.3.4>
  400ed6:	68 1f 00 00 00       	pushq  $0x1f
  400edb:	e9 f0 fd ff ff       	jmpq   400cd0 <.plt>

0000000000400ee0 <__sprintf_chk@plt>:
  400ee0:	ff 25 32 42 20 00    	jmpq   *0x204232(%rip)        # 605118 <__sprintf_chk@GLIBC_2.3.4>
  400ee6:	68 20 00 00 00       	pushq  $0x20
  400eeb:	e9 e0 fd ff ff       	jmpq   400cd0 <.plt>

0000000000400ef0 <socket@plt>:
  400ef0:	ff 25 2a 42 20 00    	jmpq   *0x20422a(%rip)        # 605120 <socket@GLIBC_2.2.5>
  400ef6:	68 21 00 00 00       	pushq  $0x21
  400efb:	e9 d0 fd ff ff       	jmpq   400cd0 <.plt>

Disassembly of section .text:

0000000000400f00 <_start>:
  400f00:	31 ed                	xor    %ebp,%ebp
  400f02:	49 89 d1             	mov    %rdx,%r9
  400f05:	5e                   	pop    %rsi
  400f06:	48 89 e2             	mov    %rsp,%rdx
  400f09:	48 83 e4 f0          	and    $0xfffffffffffffff0,%rsp
  400f0d:	50                   	push   %rax
  400f0e:	54                   	push   %rsp
  400f0f:	49 c7 c0 d0 31 40 00 	mov    $0x4031d0,%r8
  400f16:	48 c7 c1 60 31 40 00 	mov    $0x403160,%rcx
  400f1d:	48 c7 c7 0e 12 40 00 	mov    $0x40120e,%rdi
  400f24:	ff 15 c6 40 20 00    	callq  *0x2040c6(%rip)        # 604ff0 <__libc_start_main@GLIBC_2.2.5>
  400f2a:	f4                   	hlt    
  400f2b:	0f 1f 44 00 00       	nopl   0x0(%rax,%rax,1)

0000000000400f30 <_dl_relocate_static_pie>:
  400f30:	f3 c3                	repz retq 
  400f32:	66 2e 0f 1f 84 00 00 	nopw   %cs:0x0(%rax,%rax,1)
  400f39:	00 00 00 
  400f3c:	0f 1f 40 00          	nopl   0x0(%rax)

0000000000400f40 <deregister_tm_clones>:
  400f40:	55                   	push   %rbp
  400f41:	b8 b0 54 60 00       	mov    $0x6054b0,%eax
  400f46:	48 3d b0 54 60 00    	cmp    $0x6054b0,%rax
  400f4c:	48 89 e5             	mov    %rsp,%rbp
  400f4f:	74 17                	je     400f68 <deregister_tm_clones+0x28>
  400f51:	b8 00 00 00 00       	mov    $0x0,%eax
  400f56:	48 85 c0             	test   %rax,%rax
  400f59:	74 0d                	je     400f68 <deregister_tm_clones+0x28>
  400f5b:	5d                   	pop    %rbp
  400f5c:	bf b0 54 60 00       	mov    $0x6054b0,%edi
  400f61:	ff e0                	jmpq   *%rax
  400f63:	0f 1f 44 00 00       	nopl   0x0(%rax,%rax,1)
  400f68:	5d                   	pop    %rbp
  400f69:	c3                   	retq   
  400f6a:	66 0f 1f 44 00 00    	nopw   0x0(%rax,%rax,1)

0000000000400f70 <register_tm_clones>:
  400f70:	be b0 54 60 00       	mov    $0x6054b0,%esi
  400f75:	55                   	push   %rbp
  400f76:	48 81 ee b0 54 60 00 	sub    $0x6054b0,%rsi
  400f7d:	48 89 e5             	mov    %rsp,%rbp
  400f80:	48 c1 fe 03          	sar    $0x3,%rsi
  400f84:	48 89 f0             	mov    %rsi,%rax
  400f87:	48 c1 e8 3f          	shr    $0x3f,%rax
  400f8b:	48 01 c6             	add    %rax,%rsi
  400f8e:	48 d1 fe             	sar    %rsi
  400f91:	74 15                	je     400fa8 <register_tm_clones+0x38>
  400f93:	b8 00 00 00 00       	mov    $0x0,%eax
  400f98:	48 85 c0             	test   %rax,%rax
  400f9b:	74 0b                	je     400fa8 <register_tm_clones+0x38>
  400f9d:	5d                   	pop    %rbp
  400f9e:	bf b0 54 60 00       	mov    $0x6054b0,%edi
  400fa3:	ff e0                	jmpq   *%rax
  400fa5:	0f 1f 00             	nopl   (%rax)
  400fa8:	5d                   	pop    %rbp
  400fa9:	c3                   	retq   
  400faa:	66 0f 1f 44 00 00    	nopw   0x0(%rax,%rax,1)

0000000000400fb0 <__do_global_dtors_aux>:
  400fb0:	80 3d 31 45 20 00 00 	cmpb   $0x0,0x204531(%rip)        # 6054e8 <completed.7698>
  400fb7:	75 17                	jne    400fd0 <__do_global_dtors_aux+0x20>
  400fb9:	55                   	push   %rbp
  400fba:	48 89 e5             	mov    %rsp,%rbp
  400fbd:	e8 7e ff ff ff       	callq  400f40 <deregister_tm_clones>
  400fc2:	c6 05 1f 45 20 00 01 	movb   $0x1,0x20451f(%rip)        # 6054e8 <completed.7698>
  400fc9:	5d                   	pop    %rbp
  400fca:	c3                   	retq   
  400fcb:	0f 1f 44 00 00       	nopl   0x0(%rax,%rax,1)
  400fd0:	f3 c3                	repz retq 
  400fd2:	0f 1f 40 00          	nopl   0x0(%rax)
  400fd6:	66 2e 0f 1f 84 00 00 	nopw   %cs:0x0(%rax,%rax,1)
  400fdd:	00 00 00 

0000000000400fe0 <frame_dummy>:
  400fe0:	55                   	push   %rbp
  400fe1:	48 89 e5             	mov    %rsp,%rbp
  400fe4:	5d                   	pop    %rbp
  400fe5:	eb 89                	jmp    400f70 <register_tm_clones>

0000000000400fe7 <usage>:
  400fe7:	48 83 ec 08          	sub    $0x8,%rsp
  400feb:	48 89 fa             	mov    %rdi,%rdx
  400fee:	83 3d 33 45 20 00 00 	cmpl   $0x0,0x204533(%rip)        # 605528 <is_checker>
  400ff5:	74 50                	je     401047 <usage+0x60>
  400ff7:	48 8d 35 ea 21 00 00 	lea    0x21ea(%rip),%rsi        # 4031e8 <_IO_stdin_used+0x8>
  400ffe:	bf 01 00 00 00       	mov    $0x1,%edi
  401003:	b8 00 00 00 00       	mov    $0x0,%eax
  401008:	e8 53 fe ff ff       	callq  400e60 <__printf_chk@plt>
  40100d:	48 8d 3d 0c 22 00 00 	lea    0x220c(%rip),%rdi        # 403220 <_IO_stdin_used+0x40>
  401014:	e8 27 fd ff ff       	callq  400d40 <puts@plt>
  401019:	48 8d 3d 90 23 00 00 	lea    0x2390(%rip),%rdi        # 4033b0 <_IO_stdin_used+0x1d0>
  401020:	e8 1b fd ff ff       	callq  400d40 <puts@plt>
  401025:	48 8d 3d 1c 22 00 00 	lea    0x221c(%rip),%rdi        # 403248 <_IO_stdin_used+0x68>
  40102c:	e8 0f fd ff ff       	callq  400d40 <puts@plt>
  401031:	48 8d 3d 92 23 00 00 	lea    0x2392(%rip),%rdi        # 4033ca <_IO_stdin_used+0x1ea>
  401038:	e8 03 fd ff ff       	callq  400d40 <puts@plt>
  40103d:	bf 00 00 00 00       	mov    $0x0,%edi
  401042:	e8 69 fe ff ff       	callq  400eb0 <exit@plt>
  401047:	48 8d 35 98 23 00 00 	lea    0x2398(%rip),%rsi        # 4033e6 <_IO_stdin_used+0x206>
  40104e:	bf 01 00 00 00       	mov    $0x1,%edi
  401053:	b8 00 00 00 00       	mov    $0x0,%eax
  401058:	e8 03 fe ff ff       	callq  400e60 <__printf_chk@plt>
  40105d:	48 8d 3d 0c 22 00 00 	lea    0x220c(%rip),%rdi        # 403270 <_IO_stdin_used+0x90>
  401064:	e8 d7 fc ff ff       	callq  400d40 <puts@plt>
  401069:	48 8d 3d 28 22 00 00 	lea    0x2228(%rip),%rdi        # 403298 <_IO_stdin_used+0xb8>
  401070:	e8 cb fc ff ff       	callq  400d40 <puts@plt>
  401075:	48 8d 3d 88 23 00 00 	lea    0x2388(%rip),%rdi        # 403404 <_IO_stdin_used+0x224>
  40107c:	e8 bf fc ff ff       	callq  400d40 <puts@plt>
  401081:	eb ba                	jmp    40103d <usage+0x56>

0000000000401083 <initialize_target>:
  401083:	55                   	push   %rbp
  401084:	53                   	push   %rbx
  401085:	48 81 ec 18 21 00 00 	sub    $0x2118,%rsp
  40108c:	89 f5                	mov    %esi,%ebp
  40108e:	64 48 8b 04 25 28 00 	mov    %fs:0x28,%rax
  401095:	00 00 
  401097:	48 89 84 24 08 21 00 	mov    %rax,0x2108(%rsp)
  40109e:	00 
  40109f:	31 c0                	xor    %eax,%eax
  4010a1:	89 3d 71 44 20 00    	mov    %edi,0x204471(%rip)        # 605518 <check_level>
  4010a7:	8b 3d a3 40 20 00    	mov    0x2040a3(%rip),%edi        # 605150 <target_id>
  4010ad:	e8 8f 20 00 00       	callq  403141 <gencookie>
  4010b2:	89 05 6c 44 20 00    	mov    %eax,0x20446c(%rip)        # 605524 <cookie>
  4010b8:	89 c7                	mov    %eax,%edi
  4010ba:	e8 82 20 00 00       	callq  403141 <gencookie>
  4010bf:	89 05 5b 44 20 00    	mov    %eax,0x20445b(%rip)        # 605520 <authkey>
  4010c5:	8b 05 85 40 20 00    	mov    0x204085(%rip),%eax        # 605150 <target_id>
  4010cb:	8d 78 01             	lea    0x1(%rax),%edi
  4010ce:	e8 2d fc ff ff       	callq  400d00 <srandom@plt>
  4010d3:	e8 48 fd ff ff       	callq  400e20 <random@plt>
  4010d8:	89 c7                	mov    %eax,%edi
  4010da:	e8 93 03 00 00       	callq  401472 <scramble>
  4010df:	89 c3                	mov    %eax,%ebx
  4010e1:	85 ed                	test   %ebp,%ebp
  4010e3:	75 54                	jne    401139 <initialize_target+0xb6>
  4010e5:	b8 00 00 00 00       	mov    $0x0,%eax
  4010ea:	01 d8                	add    %ebx,%eax
  4010ec:	0f b7 c0             	movzwl %ax,%eax
  4010ef:	8d 04 c5 00 01 00 00 	lea    0x100(,%rax,8),%eax
  4010f6:	89 c0                	mov    %eax,%eax
  4010f8:	48 89 05 a1 43 20 00 	mov    %rax,0x2043a1(%rip)        # 6054a0 <buf_offset>
  4010ff:	c6 05 42 50 20 00 63 	movb   $0x63,0x205042(%rip)        # 606148 <target_prefix>
  401106:	83 3d 9b 43 20 00 00 	cmpl   $0x0,0x20439b(%rip)        # 6054a8 <notify>
  40110d:	74 09                	je     401118 <initialize_target+0x95>
  40110f:	83 3d 12 44 20 00 00 	cmpl   $0x0,0x204412(%rip)        # 605528 <is_checker>
  401116:	74 39                	je     401151 <initialize_target+0xce>
  401118:	48 8b 84 24 08 21 00 	mov    0x2108(%rsp),%rax
  40111f:	00 
  401120:	64 48 33 04 25 28 00 	xor    %fs:0x28,%rax
  401127:	00 00 
  401129:	0f 85 da 00 00 00    	jne    401209 <initialize_target+0x186>
  40112f:	48 81 c4 18 21 00 00 	add    $0x2118,%rsp
  401136:	5b                   	pop    %rbx
  401137:	5d                   	pop    %rbp
  401138:	c3                   	retq   
  401139:	bf 00 00 00 00       	mov    $0x0,%edi
  40113e:	e8 cd fc ff ff       	callq  400e10 <time@plt>
  401143:	89 c7                	mov    %eax,%edi
  401145:	e8 b6 fb ff ff       	callq  400d00 <srandom@plt>
  40114a:	e8 d1 fc ff ff       	callq  400e20 <random@plt>
  40114f:	eb 99                	jmp    4010ea <initialize_target+0x67>
  401151:	48 89 e7             	mov    %rsp,%rdi
  401154:	be 00 01 00 00       	mov    $0x100,%esi
  401159:	e8 42 fd ff ff       	callq  400ea0 <gethostname@plt>
  40115e:	89 c5                	mov    %eax,%ebp
  401160:	85 c0                	test   %eax,%eax
  401162:	75 26                	jne    40118a <initialize_target+0x107>
  401164:	89 c3                	mov    %eax,%ebx
  401166:	48 63 c3             	movslq %ebx,%rax
  401169:	48 8d 15 10 40 20 00 	lea    0x204010(%rip),%rdx        # 605180 <host_table>
  401170:	48 8b 3c c2          	mov    (%rdx,%rax,8),%rdi
  401174:	48 85 ff             	test   %rdi,%rdi
  401177:	74 2c                	je     4011a5 <initialize_target+0x122>
  401179:	48 89 e6             	mov    %rsp,%rsi
  40117c:	e8 5f fb ff ff       	callq  400ce0 <strcasecmp@plt>
  401181:	85 c0                	test   %eax,%eax
  401183:	74 1b                	je     4011a0 <initialize_target+0x11d>
  401185:	83 c3 01             	add    $0x1,%ebx
  401188:	eb dc                	jmp    401166 <initialize_target+0xe3>
  40118a:	48 8d 3d 37 21 00 00 	lea    0x2137(%rip),%rdi        # 4032c8 <_IO_stdin_used+0xe8>
  401191:	e8 aa fb ff ff       	callq  400d40 <puts@plt>
  401196:	bf 08 00 00 00       	mov    $0x8,%edi
  40119b:	e8 10 fd ff ff       	callq  400eb0 <exit@plt>
  4011a0:	bd 01 00 00 00       	mov    $0x1,%ebp
  4011a5:	85 ed                	test   %ebp,%ebp
  4011a7:	74 3d                	je     4011e6 <initialize_target+0x163>
  4011a9:	48 8d bc 24 00 01 00 	lea    0x100(%rsp),%rdi
  4011b0:	00 
  4011b1:	e8 bb 1c 00 00       	callq  402e71 <init_driver>
  4011b6:	85 c0                	test   %eax,%eax
  4011b8:	0f 89 5a ff ff ff    	jns    401118 <initialize_target+0x95>
  4011be:	48 8d 94 24 00 01 00 	lea    0x100(%rsp),%rdx
  4011c5:	00 
  4011c6:	48 8d 35 73 21 00 00 	lea    0x2173(%rip),%rsi        # 403340 <_IO_stdin_used+0x160>
  4011cd:	bf 01 00 00 00       	mov    $0x1,%edi
  4011d2:	b8 00 00 00 00       	mov    $0x0,%eax
  4011d7:	e8 84 fc ff ff       	callq  400e60 <__printf_chk@plt>
  4011dc:	bf 08 00 00 00       	mov    $0x8,%edi
  4011e1:	e8 ca fc ff ff       	callq  400eb0 <exit@plt>
  4011e6:	48 89 e2             	mov    %rsp,%rdx
  4011e9:	48 8d 35 10 21 00 00 	lea    0x2110(%rip),%rsi        # 403300 <_IO_stdin_used+0x120>
  4011f0:	bf 01 00 00 00       	mov    $0x1,%edi
  4011f5:	b8 00 00 00 00       	mov    $0x0,%eax
  4011fa:	e8 61 fc ff ff       	callq  400e60 <__printf_chk@plt>
  4011ff:	bf 08 00 00 00       	mov    $0x8,%edi
  401204:	e8 a7 fc ff ff       	callq  400eb0 <exit@plt>
  401209:	e8 d3 0f 00 00       	callq  4021e1 <__stack_chk_fail>

000000000040120e <main>:
  40120e:	41 56                	push   %r14
  401210:	41 55                	push   %r13
  401212:	41 54                	push   %r12
  401214:	55                   	push   %rbp
  401215:	53                   	push   %rbx
  401216:	48 83 ec 60          	sub    $0x60,%rsp
  40121a:	89 fd                	mov    %edi,%ebp
  40121c:	48 89 f3             	mov    %rsi,%rbx
  40121f:	64 48 8b 04 25 28 00 	mov    %fs:0x28,%rax
  401226:	00 00 
  401228:	48 89 44 24 58       	mov    %rax,0x58(%rsp)
  40122d:	31 c0                	xor    %eax,%eax
  40122f:	48 b8 53 70 69 72 69 	movabs $0x6465746972697053,%rax
  401236:	74 65 64 
  401239:	48 89 04 24          	mov    %rax,(%rsp)
  40123d:	c7 44 24 08 41 77 61 	movl   $0x79617741,0x8(%rsp)
  401244:	79 
  401245:	66 c7 44 24 0c 43 4e 	movw   $0x4e43,0xc(%rsp)
  40124c:	c6 44 24 0e 00       	movb   $0x0,0xe(%rsp)
  401251:	48 c7 c6 e2 20 40 00 	mov    $0x4020e2,%rsi
  401258:	bf 0b 00 00 00       	mov    $0xb,%edi
  40125d:	e8 5e fb ff ff       	callq  400dc0 <signal@plt>
  401262:	48 c7 c6 8e 20 40 00 	mov    $0x40208e,%rsi
  401269:	bf 07 00 00 00       	mov    $0x7,%edi
  40126e:	e8 4d fb ff ff       	callq  400dc0 <signal@plt>
  401273:	48 c7 c6 36 21 40 00 	mov    $0x402136,%rsi
  40127a:	bf 04 00 00 00       	mov    $0x4,%edi
  40127f:	e8 3c fb ff ff       	callq  400dc0 <signal@plt>
  401284:	83 3d 9d 42 20 00 00 	cmpl   $0x0,0x20429d(%rip)        # 605528 <is_checker>
  40128b:	75 26                	jne    4012b3 <main+0xa5>
  40128d:	4c 8d 25 89 21 00 00 	lea    0x2189(%rip),%r12        # 40341d <_IO_stdin_used+0x23d>
  401294:	48 8b 05 25 42 20 00 	mov    0x204225(%rip),%rax        # 6054c0 <stdin@@GLIBC_2.2.5>
  40129b:	48 89 05 6e 42 20 00 	mov    %rax,0x20426e(%rip)        # 605510 <infile>
  4012a2:	41 bd 00 00 00 00    	mov    $0x0,%r13d
  4012a8:	41 be 00 00 00 00    	mov    $0x0,%r14d
  4012ae:	e9 8d 00 00 00       	jmpq   401340 <main+0x132>
  4012b3:	48 c7 c6 8a 21 40 00 	mov    $0x40218a,%rsi
  4012ba:	bf 0e 00 00 00       	mov    $0xe,%edi
  4012bf:	e8 fc fa ff ff       	callq  400dc0 <signal@plt>
  4012c4:	bf 02 00 00 00       	mov    $0x2,%edi
  4012c9:	e8 b2 fa ff ff       	callq  400d80 <alarm@plt>
  4012ce:	4c 8d 25 4d 21 00 00 	lea    0x214d(%rip),%r12        # 403422 <_IO_stdin_used+0x242>
  4012d5:	eb bd                	jmp    401294 <main+0x86>
  4012d7:	48 8b 3b             	mov    (%rbx),%rdi
  4012da:	e8 08 fd ff ff       	callq  400fe7 <usage>
  4012df:	48 8d 35 0e 22 00 00 	lea    0x220e(%rip),%rsi        # 4034f4 <_IO_stdin_used+0x314>
  4012e6:	48 8b 3d db 41 20 00 	mov    0x2041db(%rip),%rdi        # 6054c8 <optarg@@GLIBC_2.2.5>
  4012ed:	e8 7e fb ff ff       	callq  400e70 <fopen@plt>
  4012f2:	48 89 05 17 42 20 00 	mov    %rax,0x204217(%rip)        # 605510 <infile>
  4012f9:	48 85 c0             	test   %rax,%rax
  4012fc:	75 42                	jne    401340 <main+0x132>
  4012fe:	48 8b 0d c3 41 20 00 	mov    0x2041c3(%rip),%rcx        # 6054c8 <optarg@@GLIBC_2.2.5>
  401305:	48 8d 15 20 21 00 00 	lea    0x2120(%rip),%rdx        # 40342c <_IO_stdin_used+0x24c>
  40130c:	be 01 00 00 00       	mov    $0x1,%esi
  401311:	48 8b 3d c8 41 20 00 	mov    0x2041c8(%rip),%rdi        # 6054e0 <stderr@@GLIBC_2.2.5>
  401318:	e8 b3 fb ff ff       	callq  400ed0 <__fprintf_chk@plt>
  40131d:	b8 01 00 00 00       	mov    $0x1,%eax
  401322:	e9 29 01 00 00       	jmpq   401450 <main+0x242>
  401327:	ba 10 00 00 00       	mov    $0x10,%edx
  40132c:	be 00 00 00 00       	mov    $0x0,%esi
  401331:	48 8b 3d 90 41 20 00 	mov    0x204190(%rip),%rdi        # 6054c8 <optarg@@GLIBC_2.2.5>
  401338:	e8 53 fb ff ff       	callq  400e90 <strtoul@plt>
  40133d:	41 89 c6             	mov    %eax,%r14d
  401340:	4c 89 e2             	mov    %r12,%rdx
  401343:	48 89 de             	mov    %rbx,%rsi
  401346:	89 ef                	mov    %ebp,%edi
  401348:	e8 33 fb ff ff       	callq  400e80 <getopt@plt>
  40134d:	3c ff                	cmp    $0xff,%al
  40134f:	74 78                	je     4013c9 <main+0x1bb>
  401351:	0f be d0             	movsbl %al,%edx
  401354:	83 e8 61             	sub    $0x61,%eax
  401357:	3c 14                	cmp    $0x14,%al
  401359:	77 50                	ja     4013ab <main+0x19d>
  40135b:	0f b6 c0             	movzbl %al,%eax
  40135e:	48 8d 0d 07 21 00 00 	lea    0x2107(%rip),%rcx        # 40346c <_IO_stdin_used+0x28c>
  401365:	48 63 04 81          	movslq (%rcx,%rax,4),%rax
  401369:	48 01 c8             	add    %rcx,%rax
  40136c:	ff e0                	jmpq   *%rax
  40136e:	ba 0a 00 00 00       	mov    $0xa,%edx
  401373:	be 00 00 00 00       	mov    $0x0,%esi
  401378:	48 8b 3d 49 41 20 00 	mov    0x204149(%rip),%rdi        # 6054c8 <optarg@@GLIBC_2.2.5>
  40137f:	e8 6c fa ff ff       	callq  400df0 <strtol@plt>
  401384:	41 89 c5             	mov    %eax,%r13d
  401387:	eb b7                	jmp    401340 <main+0x132>
  401389:	c7 05 15 41 20 00 00 	movl   $0x0,0x204115(%rip)        # 6054a8 <notify>
  401390:	00 00 00 
  401393:	eb ab                	jmp    401340 <main+0x132>
  401395:	48 89 e7             	mov    %rsp,%rdi
  401398:	ba 50 00 00 00       	mov    $0x50,%edx
  40139d:	48 8b 35 24 41 20 00 	mov    0x204124(%rip),%rsi        # 6054c8 <optarg@@GLIBC_2.2.5>
  4013a4:	e8 67 f9 ff ff       	callq  400d10 <strncpy@plt>
  4013a9:	eb 95                	jmp    401340 <main+0x132>
  4013ab:	48 8d 35 97 20 00 00 	lea    0x2097(%rip),%rsi        # 403449 <_IO_stdin_used+0x269>
  4013b2:	bf 01 00 00 00       	mov    $0x1,%edi
  4013b7:	b8 00 00 00 00       	mov    $0x0,%eax
  4013bc:	e8 9f fa ff ff       	callq  400e60 <__printf_chk@plt>
  4013c1:	48 8b 3b             	mov    (%rbx),%rdi
  4013c4:	e8 1e fc ff ff       	callq  400fe7 <usage>
  4013c9:	be 00 00 00 00       	mov    $0x0,%esi
  4013ce:	44 89 ef             	mov    %r13d,%edi
  4013d1:	e8 ad fc ff ff       	callq  401083 <initialize_target>
  4013d6:	83 3d 4b 41 20 00 00 	cmpl   $0x0,0x20414b(%rip)        # 605528 <is_checker>
  4013dd:	74 3f                	je     40141e <main+0x210>
  4013df:	44 39 35 3a 41 20 00 	cmp    %r14d,0x20413a(%rip)        # 605520 <authkey>
  4013e6:	75 13                	jne    4013fb <main+0x1ed>
  4013e8:	48 89 e7             	mov    %rsp,%rdi
  4013eb:	48 8b 35 6e 3d 20 00 	mov    0x203d6e(%rip),%rsi        # 605160 <user_id>
  4013f2:	e8 b9 f9 ff ff       	callq  400db0 <strcmp@plt>
  4013f7:	85 c0                	test   %eax,%eax
  4013f9:	74 23                	je     40141e <main+0x210>
  4013fb:	44 89 f2             	mov    %r14d,%edx
  4013fe:	48 8d 35 63 1f 00 00 	lea    0x1f63(%rip),%rsi        # 403368 <_IO_stdin_used+0x188>
  401405:	bf 01 00 00 00       	mov    $0x1,%edi
  40140a:	b8 00 00 00 00       	mov    $0x0,%eax
  40140f:	e8 4c fa ff ff       	callq  400e60 <__printf_chk@plt>
  401414:	b8 00 00 00 00       	mov    $0x0,%eax
  401419:	e8 d1 08 00 00       	callq  401cef <check_fail>
  40141e:	8b 15 00 41 20 00    	mov    0x204100(%rip),%edx        # 605524 <cookie>
  401424:	48 8d 35 31 20 00 00 	lea    0x2031(%rip),%rsi        # 40345c <_IO_stdin_used+0x27c>
  40142b:	bf 01 00 00 00       	mov    $0x1,%edi
  401430:	b8 00 00 00 00       	mov    $0x0,%eax
  401435:	e8 26 fa ff ff       	callq  400e60 <__printf_chk@plt>
  40143a:	be 00 00 00 00       	mov    $0x0,%esi
  40143f:	48 8b 3d 5a 40 20 00 	mov    0x20405a(%rip),%rdi        # 6054a0 <buf_offset>
  401446:	e8 b6 0e 00 00       	callq  402301 <stable_launch>
  40144b:	b8 00 00 00 00       	mov    $0x0,%eax
  401450:	48 8b 5c 24 58       	mov    0x58(%rsp),%rbx
  401455:	64 48 33 1c 25 28 00 	xor    %fs:0x28,%rbx
  40145c:	00 00 
  40145e:	75 0d                	jne    40146d <main+0x25f>
  401460:	48 83 c4 60          	add    $0x60,%rsp
  401464:	5b                   	pop    %rbx
  401465:	5d                   	pop    %rbp
  401466:	41 5c                	pop    %r12
  401468:	41 5d                	pop    %r13
  40146a:	41 5e                	pop    %r14
  40146c:	c3                   	retq   
  40146d:	e8 6f 0d 00 00       	callq  4021e1 <__stack_chk_fail>

0000000000401472 <scramble>:
  401472:	48 83 ec 38          	sub    $0x38,%rsp
  401476:	64 48 8b 04 25 28 00 	mov    %fs:0x28,%rax
  40147d:	00 00 
  40147f:	48 89 44 24 28       	mov    %rax,0x28(%rsp)
  401484:	31 c0                	xor    %eax,%eax
  401486:	eb 10                	jmp    401498 <scramble+0x26>
  401488:	69 d0 dc 8c 00 00    	imul   $0x8cdc,%eax,%edx
  40148e:	01 fa                	add    %edi,%edx
  401490:	89 c1                	mov    %eax,%ecx
  401492:	89 14 8c             	mov    %edx,(%rsp,%rcx,4)
  401495:	83 c0 01             	add    $0x1,%eax
  401498:	83 f8 09             	cmp    $0x9,%eax
  40149b:	76 eb                	jbe    401488 <scramble+0x16>
  40149d:	8b 44 24 24          	mov    0x24(%rsp),%eax
  4014a1:	69 c0 39 dc 00 00    	imul   $0xdc39,%eax,%eax
  4014a7:	89 44 24 24          	mov    %eax,0x24(%rsp)
  4014ab:	8b 44 24 14          	mov    0x14(%rsp),%eax
  4014af:	69 c0 3a 0e 00 00    	imul   $0xe3a,%eax,%eax
  4014b5:	89 44 24 14          	mov    %eax,0x14(%rsp)
  4014b9:	8b 44 24 18          	mov    0x18(%rsp),%eax
  4014bd:	69 c0 71 06 00 00    	imul   $0x671,%eax,%eax
  4014c3:	89 44 24 18          	mov    %eax,0x18(%rsp)
  4014c7:	8b 44 24 18          	mov    0x18(%rsp),%eax
  4014cb:	69 c0 c0 49 00 00    	imul   $0x49c0,%eax,%eax
  4014d1:	89 44 24 18          	mov    %eax,0x18(%rsp)
  4014d5:	8b 44 24 04          	mov    0x4(%rsp),%eax
  4014d9:	69 c0 c8 ad 00 00    	imul   $0xadc8,%eax,%eax
  4014df:	89 44 24 04          	mov    %eax,0x4(%rsp)
  4014e3:	8b 44 24 20          	mov    0x20(%rsp),%eax
  4014e7:	69 c0 7b c8 00 00    	imul   $0xc87b,%eax,%eax
  4014ed:	89 44 24 20          	mov    %eax,0x20(%rsp)
  4014f1:	8b 44 24 24          	mov    0x24(%rsp),%eax
  4014f5:	69 c0 be af 00 00    	imul   $0xafbe,%eax,%eax
  4014fb:	89 44 24 24          	mov    %eax,0x24(%rsp)
  4014ff:	8b 44 24 18          	mov    0x18(%rsp),%eax
  401503:	69 c0 12 30 00 00    	imul   $0x3012,%eax,%eax
  401509:	89 44 24 18          	mov    %eax,0x18(%rsp)
  40150d:	8b 44 24 08          	mov    0x8(%rsp),%eax
  401511:	69 c0 27 49 00 00    	imul   $0x4927,%eax,%eax
  401517:	89 44 24 08          	mov    %eax,0x8(%rsp)
  40151b:	8b 44 24 18          	mov    0x18(%rsp),%eax
  40151f:	69 c0 39 9e 00 00    	imul   $0x9e39,%eax,%eax
  401525:	89 44 24 18          	mov    %eax,0x18(%rsp)
  401529:	8b 44 24 18          	mov    0x18(%rsp),%eax
  40152d:	69 c0 c9 94 00 00    	imul   $0x94c9,%eax,%eax
  401533:	89 44 24 18          	mov    %eax,0x18(%rsp)
  401537:	8b 44 24 24          	mov    0x24(%rsp),%eax
  40153b:	69 c0 6a 09 00 00    	imul   $0x96a,%eax,%eax
  401541:	89 44 24 24          	mov    %eax,0x24(%rsp)
  401545:	8b 44 24 04          	mov    0x4(%rsp),%eax
  401549:	69 c0 04 36 00 00    	imul   $0x3604,%eax,%eax
  40154f:	89 44 24 04          	mov    %eax,0x4(%rsp)
  401553:	8b 04 24             	mov    (%rsp),%eax
  401556:	69 c0 1b 5b 00 00    	imul   $0x5b1b,%eax,%eax
  40155c:	89 04 24             	mov    %eax,(%rsp)
  40155f:	8b 44 24 0c          	mov    0xc(%rsp),%eax
  401563:	69 c0 1e cd 00 00    	imul   $0xcd1e,%eax,%eax
  401569:	89 44 24 0c          	mov    %eax,0xc(%rsp)
  40156d:	8b 44 24 1c          	mov    0x1c(%rsp),%eax
  401571:	69 c0 18 a1 00 00    	imul   $0xa118,%eax,%eax
  401577:	89 44 24 1c          	mov    %eax,0x1c(%rsp)
  40157b:	8b 44 24 18          	mov    0x18(%rsp),%eax
  40157f:	69 c0 54 36 00 00    	imul   $0x3654,%eax,%eax
  401585:	89 44 24 18          	mov    %eax,0x18(%rsp)
  401589:	8b 44 24 24          	mov    0x24(%rsp),%eax
  40158d:	69 c0 2d 77 00 00    	imul   $0x772d,%eax,%eax
  401593:	89 44 24 24          	mov    %eax,0x24(%rsp)
  401597:	8b 44 24 1c          	mov    0x1c(%rsp),%eax
  40159b:	69 c0 03 36 00 00    	imul   $0x3603,%eax,%eax
  4015a1:	89 44 24 1c          	mov    %eax,0x1c(%rsp)
  4015a5:	8b 44 24 24          	mov    0x24(%rsp),%eax
  4015a9:	69 c0 fe a0 00 00    	imul   $0xa0fe,%eax,%eax
  4015af:	89 44 24 24          	mov    %eax,0x24(%rsp)
  4015b3:	8b 44 24 1c          	mov    0x1c(%rsp),%eax
  4015b7:	69 c0 29 08 00 00    	imul   $0x829,%eax,%eax
  4015bd:	89 44 24 1c          	mov    %eax,0x1c(%rsp)
  4015c1:	8b 44 24 14          	mov    0x14(%rsp),%eax
  4015c5:	69 c0 ef 85 00 00    	imul   $0x85ef,%eax,%eax
  4015cb:	89 44 24 14          	mov    %eax,0x14(%rsp)
  4015cf:	8b 44 24 0c          	mov    0xc(%rsp),%eax
  4015d3:	69 c0 4b 36 00 00    	imul   $0x364b,%eax,%eax
  4015d9:	89 44 24 0c          	mov    %eax,0xc(%rsp)
  4015dd:	8b 44 24 10          	mov    0x10(%rsp),%eax
  4015e1:	69 c0 b5 83 00 00    	imul   $0x83b5,%eax,%eax
  4015e7:	89 44 24 10          	mov    %eax,0x10(%rsp)
  4015eb:	8b 44 24 1c          	mov    0x1c(%rsp),%eax
  4015ef:	69 c0 a9 d5 00 00    	imul   $0xd5a9,%eax,%eax
  4015f5:	89 44 24 1c          	mov    %eax,0x1c(%rsp)
  4015f9:	8b 44 24 10          	mov    0x10(%rsp),%eax
  4015fd:	69 c0 75 a1 00 00    	imul   $0xa175,%eax,%eax
  401603:	89 44 24 10          	mov    %eax,0x10(%rsp)
  401607:	8b 44 24 0c          	mov    0xc(%rsp),%eax
  40160b:	69 c0 73 af 00 00    	imul   $0xaf73,%eax,%eax
  401611:	89 44 24 0c          	mov    %eax,0xc(%rsp)
  401615:	8b 44 24 24          	mov    0x24(%rsp),%eax
  401619:	69 c0 59 3d 00 00    	imul   $0x3d59,%eax,%eax
  40161f:	89 44 24 24          	mov    %eax,0x24(%rsp)
  401623:	8b 44 24 0c          	mov    0xc(%rsp),%eax
  401627:	69 c0 31 d7 00 00    	imul   $0xd731,%eax,%eax
  40162d:	89 44 24 0c          	mov    %eax,0xc(%rsp)
  401631:	8b 44 24 24          	mov    0x24(%rsp),%eax
  401635:	69 c0 b3 f9 00 00    	imul   $0xf9b3,%eax,%eax
  40163b:	89 44 24 24          	mov    %eax,0x24(%rsp)
  40163f:	8b 44 24 04          	mov    0x4(%rsp),%eax
  401643:	69 c0 54 47 00 00    	imul   $0x4754,%eax,%eax
  401649:	89 44 24 04          	mov    %eax,0x4(%rsp)
  40164d:	8b 44 24 08          	mov    0x8(%rsp),%eax
  401651:	69 c0 a6 4d 00 00    	imul   $0x4da6,%eax,%eax
  401657:	89 44 24 08          	mov    %eax,0x8(%rsp)
  40165b:	8b 44 24 0c          	mov    0xc(%rsp),%eax
  40165f:	69 c0 1e 4a 00 00    	imul   $0x4a1e,%eax,%eax
  401665:	89 44 24 0c          	mov    %eax,0xc(%rsp)
  401669:	8b 44 24 0c          	mov    0xc(%rsp),%eax
  40166d:	69 c0 6e ba 00 00    	imul   $0xba6e,%eax,%eax
  401673:	89 44 24 0c          	mov    %eax,0xc(%rsp)
  401677:	8b 04 24             	mov    (%rsp),%eax
  40167a:	69 c0 c1 85 00 00    	imul   $0x85c1,%eax,%eax
  401680:	89 04 24             	mov    %eax,(%rsp)
  401683:	8b 44 24 08          	mov    0x8(%rsp),%eax
  401687:	69 c0 ec 63 00 00    	imul   $0x63ec,%eax,%eax
  40168d:	89 44 24 08          	mov    %eax,0x8(%rsp)
  401691:	8b 44 24 0c          	mov    0xc(%rsp),%eax
  401695:	69 c0 e5 c4 00 00    	imul   $0xc4e5,%eax,%eax
  40169b:	89 44 24 0c          	mov    %eax,0xc(%rsp)
  40169f:	8b 44 24 18          	mov    0x18(%rsp),%eax
  4016a3:	69 c0 d1 45 00 00    	imul   $0x45d1,%eax,%eax
  4016a9:	89 44 24 18          	mov    %eax,0x18(%rsp)
  4016ad:	8b 44 24 14          	mov    0x14(%rsp),%eax
  4016b1:	69 c0 dc 9f 00 00    	imul   $0x9fdc,%eax,%eax
  4016b7:	89 44 24 14          	mov    %eax,0x14(%rsp)
  4016bb:	8b 44 24 0c          	mov    0xc(%rsp),%eax
  4016bf:	69 c0 a3 7a 00 00    	imul   $0x7aa3,%eax,%eax
  4016c5:	89 44 24 0c          	mov    %eax,0xc(%rsp)
  4016c9:	8b 44 24 20          	mov    0x20(%rsp),%eax
  4016cd:	69 c0 76 eb 00 00    	imul   $0xeb76,%eax,%eax
  4016d3:	89 44 24 20          	mov    %eax,0x20(%rsp)
  4016d7:	8b 44 24 1c          	mov    0x1c(%rsp),%eax
  4016db:	69 c0 f8 df 00 00    	imul   $0xdff8,%eax,%eax
  4016e1:	89 44 24 1c          	mov    %eax,0x1c(%rsp)
  4016e5:	8b 44 24 04          	mov    0x4(%rsp),%eax
  4016e9:	69 c0 f7 c6 00 00    	imul   $0xc6f7,%eax,%eax
  4016ef:	89 44 24 04          	mov    %eax,0x4(%rsp)
  4016f3:	8b 44 24 20          	mov    0x20(%rsp),%eax
  4016f7:	69 c0 60 80 00 00    	imul   $0x8060,%eax,%eax
  4016fd:	89 44 24 20          	mov    %eax,0x20(%rsp)
  401701:	8b 04 24             	mov    (%rsp),%eax
  401704:	69 c0 c6 b5 00 00    	imul   $0xb5c6,%eax,%eax
  40170a:	89 04 24             	mov    %eax,(%rsp)
  40170d:	8b 44 24 10          	mov    0x10(%rsp),%eax
  401711:	69 c0 77 42 00 00    	imul   $0x4277,%eax,%eax
  401717:	89 44 24 10          	mov    %eax,0x10(%rsp)
  40171b:	8b 44 24 18          	mov    0x18(%rsp),%eax
  40171f:	69 c0 df 14 00 00    	imul   $0x14df,%eax,%eax
  401725:	89 44 24 18          	mov    %eax,0x18(%rsp)
  401729:	8b 44 24 04          	mov    0x4(%rsp),%eax
  40172d:	69 c0 c3 7a 00 00    	imul   $0x7ac3,%eax,%eax
  401733:	89 44 24 04          	mov    %eax,0x4(%rsp)
  401737:	8b 44 24 0c          	mov    0xc(%rsp),%eax
  40173b:	69 c0 f1 54 00 00    	imul   $0x54f1,%eax,%eax
  401741:	89 44 24 0c          	mov    %eax,0xc(%rsp)
  401745:	8b 44 24 10          	mov    0x10(%rsp),%eax
  401749:	69 c0 1e df 00 00    	imul   $0xdf1e,%eax,%eax
  40174f:	89 44 24 10          	mov    %eax,0x10(%rsp)
  401753:	8b 44 24 20          	mov    0x20(%rsp),%eax
  401757:	69 c0 9d 90 00 00    	imul   $0x909d,%eax,%eax
  40175d:	89 44 24 20          	mov    %eax,0x20(%rsp)
  401761:	8b 44 24 08          	mov    0x8(%rsp),%eax
  401765:	69 c0 9c 68 00 00    	imul   $0x689c,%eax,%eax
  40176b:	89 44 24 08          	mov    %eax,0x8(%rsp)
  40176f:	8b 44 24 20          	mov    0x20(%rsp),%eax
  401773:	69 c0 e5 2c 00 00    	imul   $0x2ce5,%eax,%eax
  401779:	89 44 24 20          	mov    %eax,0x20(%rsp)
  40177d:	8b 44 24 24          	mov    0x24(%rsp),%eax
  401781:	69 c0 b3 50 00 00    	imul   $0x50b3,%eax,%eax
  401787:	89 44 24 24          	mov    %eax,0x24(%rsp)
  40178b:	8b 44 24 18          	mov    0x18(%rsp),%eax
  40178f:	69 c0 f5 77 00 00    	imul   $0x77f5,%eax,%eax
  401795:	89 44 24 18          	mov    %eax,0x18(%rsp)
  401799:	8b 44 24 1c          	mov    0x1c(%rsp),%eax
  40179d:	69 c0 47 42 00 00    	imul   $0x4247,%eax,%eax
  4017a3:	89 44 24 1c          	mov    %eax,0x1c(%rsp)
  4017a7:	8b 44 24 0c          	mov    0xc(%rsp),%eax
  4017ab:	69 c0 6e e7 00 00    	imul   $0xe76e,%eax,%eax
  4017b1:	89 44 24 0c          	mov    %eax,0xc(%rsp)
  4017b5:	8b 44 24 14          	mov    0x14(%rsp),%eax
  4017b9:	69 c0 54 fe 00 00    	imul   $0xfe54,%eax,%eax
  4017bf:	89 44 24 14          	mov    %eax,0x14(%rsp)
  4017c3:	8b 44 24 10          	mov    0x10(%rsp),%eax
  4017c7:	69 c0 90 3f 00 00    	imul   $0x3f90,%eax,%eax
  4017cd:	89 44 24 10          	mov    %eax,0x10(%rsp)
  4017d1:	8b 44 24 04          	mov    0x4(%rsp),%eax
  4017d5:	69 c0 8e 4c 00 00    	imul   $0x4c8e,%eax,%eax
  4017db:	89 44 24 04          	mov    %eax,0x4(%rsp)
  4017df:	8b 44 24 0c          	mov    0xc(%rsp),%eax
  4017e3:	69 c0 c8 f8 00 00    	imul   $0xf8c8,%eax,%eax
  4017e9:	89 44 24 0c          	mov    %eax,0xc(%rsp)
  4017ed:	8b 44 24 20          	mov    0x20(%rsp),%eax
  4017f1:	69 c0 71 f2 00 00    	imul   $0xf271,%eax,%eax
  4017f7:	89 44 24 20          	mov    %eax,0x20(%rsp)
  4017fb:	8b 44 24 10          	mov    0x10(%rsp),%eax
  4017ff:	69 c0 23 1f 00 00    	imul   $0x1f23,%eax,%eax
  401805:	89 44 24 10          	mov    %eax,0x10(%rsp)
  401809:	8b 44 24 0c          	mov    0xc(%rsp),%eax
  40180d:	69 c0 a5 6c 00 00    	imul   $0x6ca5,%eax,%eax
  401813:	89 44 24 0c          	mov    %eax,0xc(%rsp)
  401817:	8b 44 24 18          	mov    0x18(%rsp),%eax
  40181b:	69 c0 65 a2 00 00    	imul   $0xa265,%eax,%eax
  401821:	89 44 24 18          	mov    %eax,0x18(%rsp)
  401825:	8b 44 24 08          	mov    0x8(%rsp),%eax
  401829:	69 c0 c7 4e 00 00    	imul   $0x4ec7,%eax,%eax
  40182f:	89 44 24 08          	mov    %eax,0x8(%rsp)
  401833:	8b 44 24 18          	mov    0x18(%rsp),%eax
  401837:	69 c0 ce 8e 00 00    	imul   $0x8ece,%eax,%eax
  40183d:	89 44 24 18          	mov    %eax,0x18(%rsp)
  401841:	8b 04 24             	mov    (%rsp),%eax
  401844:	69 c0 85 88 00 00    	imul   $0x8885,%eax,%eax
  40184a:	89 04 24             	mov    %eax,(%rsp)
  40184d:	8b 44 24 20          	mov    0x20(%rsp),%eax
  401851:	69 c0 d2 65 00 00    	imul   $0x65d2,%eax,%eax
  401857:	89 44 24 20          	mov    %eax,0x20(%rsp)
  40185b:	8b 44 24 04          	mov    0x4(%rsp),%eax
  40185f:	69 c0 75 88 00 00    	imul   $0x8875,%eax,%eax
  401865:	89 44 24 04          	mov    %eax,0x4(%rsp)
  401869:	8b 44 24 18          	mov    0x18(%rsp),%eax
  40186d:	69 c0 8e a4 00 00    	imul   $0xa48e,%eax,%eax
  401873:	89 44 24 18          	mov    %eax,0x18(%rsp)
  401877:	8b 44 24 20          	mov    0x20(%rsp),%eax
  40187b:	69 c0 32 41 00 00    	imul   $0x4132,%eax,%eax
  401881:	89 44 24 20          	mov    %eax,0x20(%rsp)
  401885:	8b 44 24 18          	mov    0x18(%rsp),%eax
  401889:	69 c0 fb ec 00 00    	imul   $0xecfb,%eax,%eax
  40188f:	89 44 24 18          	mov    %eax,0x18(%rsp)
  401893:	8b 44 24 18          	mov    0x18(%rsp),%eax
  401897:	69 c0 61 3a 00 00    	imul   $0x3a61,%eax,%eax
  40189d:	89 44 24 18          	mov    %eax,0x18(%rsp)
  4018a1:	8b 44 24 04          	mov    0x4(%rsp),%eax
  4018a5:	69 c0 3a be 00 00    	imul   $0xbe3a,%eax,%eax
  4018ab:	89 44 24 04          	mov    %eax,0x4(%rsp)
  4018af:	8b 44 24 1c          	mov    0x1c(%rsp),%eax
  4018b3:	69 c0 e3 21 00 00    	imul   $0x21e3,%eax,%eax
  4018b9:	89 44 24 1c          	mov    %eax,0x1c(%rsp)
  4018bd:	8b 44 24 08          	mov    0x8(%rsp),%eax
  4018c1:	69 c0 f5 15 00 00    	imul   $0x15f5,%eax,%eax
  4018c7:	89 44 24 08          	mov    %eax,0x8(%rsp)
  4018cb:	8b 44 24 20          	mov    0x20(%rsp),%eax
  4018cf:	69 c0 ab c4 00 00    	imul   $0xc4ab,%eax,%eax
  4018d5:	89 44 24 20          	mov    %eax,0x20(%rsp)
  4018d9:	8b 44 24 10          	mov    0x10(%rsp),%eax
  4018dd:	69 c0 89 81 00 00    	imul   $0x8189,%eax,%eax
  4018e3:	89 44 24 10          	mov    %eax,0x10(%rsp)
  4018e7:	8b 44 24 20          	mov    0x20(%rsp),%eax
  4018eb:	69 c0 2d a9 00 00    	imul   $0xa92d,%eax,%eax
  4018f1:	89 44 24 20          	mov    %eax,0x20(%rsp)
  4018f5:	8b 44 24 0c          	mov    0xc(%rsp),%eax
  4018f9:	69 c0 14 7d 00 00    	imul   $0x7d14,%eax,%eax
  4018ff:	89 44 24 0c          	mov    %eax,0xc(%rsp)
  401903:	8b 44 24 1c          	mov    0x1c(%rsp),%eax
  401907:	69 c0 f1 56 00 00    	imul   $0x56f1,%eax,%eax
  40190d:	89 44 24 1c          	mov    %eax,0x1c(%rsp)
  401911:	8b 44 24 20          	mov    0x20(%rsp),%eax
  401915:	69 c0 59 af 00 00    	imul   $0xaf59,%eax,%eax
  40191b:	89 44 24 20          	mov    %eax,0x20(%rsp)
  40191f:	8b 44 24 24          	mov    0x24(%rsp),%eax
  401923:	69 c0 97 c7 00 00    	imul   $0xc797,%eax,%eax
  401929:	89 44 24 24          	mov    %eax,0x24(%rsp)
  40192d:	8b 04 24             	mov    (%rsp),%eax
  401930:	69 c0 ae b8 00 00    	imul   $0xb8ae,%eax,%eax
  401936:	89 04 24             	mov    %eax,(%rsp)
  401939:	8b 44 24 08          	mov    0x8(%rsp),%eax
  40193d:	69 c0 f2 f2 00 00    	imul   $0xf2f2,%eax,%eax
  401943:	89 44 24 08          	mov    %eax,0x8(%rsp)
  401947:	8b 44 24 08          	mov    0x8(%rsp),%eax
  40194b:	69 c0 c9 1a 00 00    	imul   $0x1ac9,%eax,%eax
  401951:	89 44 24 08          	mov    %eax,0x8(%rsp)
  401955:	8b 44 24 20          	mov    0x20(%rsp),%eax
  401959:	69 c0 38 e9 00 00    	imul   $0xe938,%eax,%eax
  40195f:	89 44 24 20          	mov    %eax,0x20(%rsp)
  401963:	8b 44 24 1c          	mov    0x1c(%rsp),%eax
  401967:	69 c0 aa 73 00 00    	imul   $0x73aa,%eax,%eax
  40196d:	89 44 24 1c          	mov    %eax,0x1c(%rsp)
  401971:	8b 04 24             	mov    (%rsp),%eax
  401974:	69 c0 50 34 00 00    	imul   $0x3450,%eax,%eax
  40197a:	89 04 24             	mov    %eax,(%rsp)
  40197d:	8b 44 24 0c          	mov    0xc(%rsp),%eax
  401981:	69 c0 89 aa 00 00    	imul   $0xaa89,%eax,%eax
  401987:	89 44 24 0c          	mov    %eax,0xc(%rsp)
  40198b:	8b 44 24 20          	mov    0x20(%rsp),%eax
  40198f:	69 c0 e7 e8 00 00    	imul   $0xe8e7,%eax,%eax
  401995:	89 44 24 20          	mov    %eax,0x20(%rsp)
  401999:	8b 44 24 08          	mov    0x8(%rsp),%eax
  40199d:	69 c0 88 6a 00 00    	imul   $0x6a88,%eax,%eax
  4019a3:	89 44 24 08          	mov    %eax,0x8(%rsp)
  4019a7:	8b 44 24 1c          	mov    0x1c(%rsp),%eax
  4019ab:	69 c0 96 f5 00 00    	imul   $0xf596,%eax,%eax
  4019b1:	89 44 24 1c          	mov    %eax,0x1c(%rsp)
  4019b5:	ba 00 00 00 00       	mov    $0x0,%edx
  4019ba:	b8 00 00 00 00       	mov    $0x0,%eax
  4019bf:	eb 0a                	jmp    4019cb <scramble+0x559>
  4019c1:	89 d1                	mov    %edx,%ecx
  4019c3:	8b 0c 8c             	mov    (%rsp,%rcx,4),%ecx
  4019c6:	01 c8                	add    %ecx,%eax
  4019c8:	83 c2 01             	add    $0x1,%edx
  4019cb:	83 fa 09             	cmp    $0x9,%edx
  4019ce:	76 f1                	jbe    4019c1 <scramble+0x54f>
  4019d0:	48 8b 74 24 28       	mov    0x28(%rsp),%rsi
  4019d5:	64 48 33 34 25 28 00 	xor    %fs:0x28,%rsi
  4019dc:	00 00 
  4019de:	75 05                	jne    4019e5 <scramble+0x573>
  4019e0:	48 83 c4 38          	add    $0x38,%rsp
  4019e4:	c3                   	retq   
  4019e5:	e8 f7 07 00 00       	callq  4021e1 <__stack_chk_fail>

00000000004019ea <getbuf>:
  4019ea:	48 83 ec 28          	sub    $0x28,%rsp
  4019ee:	48 89 e7             	mov    %rsp,%rdi
  4019f1:	e8 31 03 00 00       	callq  401d27 <Gets>
  4019f6:	b8 01 00 00 00       	mov    $0x1,%eax
  4019fb:	48 83 c4 28          	add    $0x28,%rsp
  4019ff:	c3                   	retq   

0000000000401a00 <getbuf_withcanary>:
  401a00:	55                   	push   %rbp
  401a01:	48 89 e5             	mov    %rsp,%rbp
  401a04:	48 81 ec 20 01 00 00 	sub    $0x120,%rsp
  401a0b:	64 48 8b 04 25 28 00 	mov    %fs:0x28,%rax
  401a12:	00 00 
  401a14:	48 89 45 f8          	mov    %rax,-0x8(%rbp)
  401a18:	31 c0                	xor    %eax,%eax
  401a1a:	c7 45 e4 00 00 00 00 	movl   $0x0,-0x1c(%rbp)
  401a21:	48 8d 85 60 ff ff ff 	lea    -0xa0(%rbp),%rax
  401a28:	48 89 c7             	mov    %rax,%rdi
  401a2b:	e8 f7 02 00 00       	callq  401d27 <Gets>
  401a30:	8b 45 e4             	mov    -0x1c(%rbp),%eax
  401a33:	48 98                	cltq   
  401a35:	48 8d 95 e0 fe ff ff 	lea    -0x120(%rbp),%rdx
  401a3c:	48 8d 0c 02          	lea    (%rdx,%rax,1),%rcx
  401a40:	48 8d 85 60 ff ff ff 	lea    -0xa0(%rbp),%rax
  401a47:	ba 80 00 00 00       	mov    $0x80,%edx
  401a4c:	48 89 c6             	mov    %rax,%rsi
  401a4f:	48 89 cf             	mov    %rcx,%rdi
  401a52:	e8 a9 f3 ff ff       	callq  400e00 <memcpy@plt>
  401a57:	b8 01 00 00 00       	mov    $0x1,%eax
  401a5c:	48 8b 75 f8          	mov    -0x8(%rbp),%rsi
  401a60:	64 48 33 34 25 28 00 	xor    %fs:0x28,%rsi
  401a67:	00 00 
  401a69:	74 05                	je     401a70 <getbuf_withcanary+0x70>
  401a6b:	e8 71 07 00 00       	callq  4021e1 <__stack_chk_fail>
  401a70:	c9                   	leaveq 
  401a71:	c3                   	retq   

0000000000401a72 <touch1>:
  401a72:	48 83 ec 08          	sub    $0x8,%rsp
  401a76:	c7 05 9c 3a 20 00 01 	movl   $0x1,0x203a9c(%rip)        # 60551c <vlevel>
  401a7d:	00 00 00 
  401a80:	48 8d 3d 6f 1a 00 00 	lea    0x1a6f(%rip),%rdi        # 4034f6 <_IO_stdin_used+0x316>
  401a87:	e8 b4 f2 ff ff       	callq  400d40 <puts@plt>
  401a8c:	bf 01 00 00 00       	mov    $0x1,%edi
  401a91:	e8 f9 04 00 00       	callq  401f8f <validate>
  401a96:	bf 00 00 00 00       	mov    $0x0,%edi
  401a9b:	e8 10 f4 ff ff       	callq  400eb0 <exit@plt>

0000000000401aa0 <touch2>:
  401aa0:	48 83 ec 08          	sub    $0x8,%rsp
  401aa4:	89 fa                	mov    %edi,%edx
  401aa6:	c7 05 6c 3a 20 00 02 	movl   $0x2,0x203a6c(%rip)        # 60551c <vlevel>
  401aad:	00 00 00 
  401ab0:	39 3d 6e 3a 20 00    	cmp    %edi,0x203a6e(%rip)        # 605524 <cookie>
  401ab6:	74 2a                	je     401ae2 <touch2+0x42>
  401ab8:	48 8d 35 81 1a 00 00 	lea    0x1a81(%rip),%rsi        # 403540 <_IO_stdin_used+0x360>
  401abf:	bf 01 00 00 00       	mov    $0x1,%edi
  401ac4:	b8 00 00 00 00       	mov    $0x0,%eax
  401ac9:	e8 92 f3 ff ff       	callq  400e60 <__printf_chk@plt>
  401ace:	bf 02 00 00 00       	mov    $0x2,%edi
  401ad3:	e8 8e 05 00 00       	callq  402066 <fail>
  401ad8:	bf 00 00 00 00       	mov    $0x0,%edi
  401add:	e8 ce f3 ff ff       	callq  400eb0 <exit@plt>
  401ae2:	48 8d 35 2f 1a 00 00 	lea    0x1a2f(%rip),%rsi        # 403518 <_IO_stdin_used+0x338>
  401ae9:	bf 01 00 00 00       	mov    $0x1,%edi
  401aee:	b8 00 00 00 00       	mov    $0x0,%eax
  401af3:	e8 68 f3 ff ff       	callq  400e60 <__printf_chk@plt>
  401af8:	bf 02 00 00 00       	mov    $0x2,%edi
  401afd:	e8 8d 04 00 00       	callq  401f8f <validate>
  401b02:	eb d4                	jmp    401ad8 <touch2+0x38>

0000000000401b04 <hexmatch>:
  401b04:	41 54                	push   %r12
  401b06:	55                   	push   %rbp
  401b07:	53                   	push   %rbx
  401b08:	48 83 c4 80          	add    $0xffffffffffffff80,%rsp
  401b0c:	89 fd                	mov    %edi,%ebp
  401b0e:	48 89 f3             	mov    %rsi,%rbx
  401b11:	64 48 8b 04 25 28 00 	mov    %fs:0x28,%rax
  401b18:	00 00 
  401b1a:	48 89 44 24 78       	mov    %rax,0x78(%rsp)
  401b1f:	31 c0                	xor    %eax,%eax
  401b21:	e8 fa f2 ff ff       	callq  400e20 <random@plt>
  401b26:	48 89 c1             	mov    %rax,%rcx
  401b29:	48 ba 0b d7 a3 70 3d 	movabs $0xa3d70a3d70a3d70b,%rdx
  401b30:	0a d7 a3 
  401b33:	48 f7 ea             	imul   %rdx
  401b36:	48 01 ca             	add    %rcx,%rdx
  401b39:	48 c1 fa 06          	sar    $0x6,%rdx
  401b3d:	48 89 c8             	mov    %rcx,%rax
  401b40:	48 c1 f8 3f          	sar    $0x3f,%rax
  401b44:	48 29 c2             	sub    %rax,%rdx
  401b47:	48 8d 04 92          	lea    (%rdx,%rdx,4),%rax
  401b4b:	48 8d 14 80          	lea    (%rax,%rax,4),%rdx
  401b4f:	48 8d 04 95 00 00 00 	lea    0x0(,%rdx,4),%rax
  401b56:	00 
  401b57:	48 29 c1             	sub    %rax,%rcx
  401b5a:	4c 8d 24 0c          	lea    (%rsp,%rcx,1),%r12
  401b5e:	41 89 e8             	mov    %ebp,%r8d
  401b61:	48 8d 0d ab 19 00 00 	lea    0x19ab(%rip),%rcx        # 403513 <_IO_stdin_used+0x333>
  401b68:	48 c7 c2 ff ff ff ff 	mov    $0xffffffffffffffff,%rdx
  401b6f:	be 01 00 00 00       	mov    $0x1,%esi
  401b74:	4c 89 e7             	mov    %r12,%rdi
  401b77:	b8 00 00 00 00       	mov    $0x0,%eax
  401b7c:	e8 5f f3 ff ff       	callq  400ee0 <__sprintf_chk@plt>
  401b81:	ba 09 00 00 00       	mov    $0x9,%edx
  401b86:	4c 89 e6             	mov    %r12,%rsi
  401b89:	48 89 df             	mov    %rbx,%rdi
  401b8c:	e8 8f f1 ff ff       	callq  400d20 <strncmp@plt>
  401b91:	85 c0                	test   %eax,%eax
  401b93:	0f 94 c0             	sete   %al
  401b96:	48 8b 5c 24 78       	mov    0x78(%rsp),%rbx
  401b9b:	64 48 33 1c 25 28 00 	xor    %fs:0x28,%rbx
  401ba2:	00 00 
  401ba4:	75 0c                	jne    401bb2 <hexmatch+0xae>
  401ba6:	0f b6 c0             	movzbl %al,%eax
  401ba9:	48 83 ec 80          	sub    $0xffffffffffffff80,%rsp
  401bad:	5b                   	pop    %rbx
  401bae:	5d                   	pop    %rbp
  401baf:	41 5c                	pop    %r12
  401bb1:	c3                   	retq   
  401bb2:	e8 2a 06 00 00       	callq  4021e1 <__stack_chk_fail>

0000000000401bb7 <touch3>:
  401bb7:	53                   	push   %rbx
  401bb8:	48 89 fb             	mov    %rdi,%rbx
  401bbb:	c7 05 57 39 20 00 03 	movl   $0x3,0x203957(%rip)        # 60551c <vlevel>
  401bc2:	00 00 00 
  401bc5:	48 89 fe             	mov    %rdi,%rsi
  401bc8:	8b 3d 56 39 20 00    	mov    0x203956(%rip),%edi        # 605524 <cookie>
  401bce:	e8 31 ff ff ff       	callq  401b04 <hexmatch>
  401bd3:	85 c0                	test   %eax,%eax
  401bd5:	74 2d                	je     401c04 <touch3+0x4d>
  401bd7:	48 89 da             	mov    %rbx,%rdx
  401bda:	48 8d 35 87 19 00 00 	lea    0x1987(%rip),%rsi        # 403568 <_IO_stdin_used+0x388>
  401be1:	bf 01 00 00 00       	mov    $0x1,%edi
  401be6:	b8 00 00 00 00       	mov    $0x0,%eax
  401beb:	e8 70 f2 ff ff       	callq  400e60 <__printf_chk@plt>
  401bf0:	bf 03 00 00 00       	mov    $0x3,%edi
  401bf5:	e8 95 03 00 00       	callq  401f8f <validate>
  401bfa:	bf 00 00 00 00       	mov    $0x0,%edi
  401bff:	e8 ac f2 ff ff       	callq  400eb0 <exit@plt>
  401c04:	48 89 da             	mov    %rbx,%rdx
  401c07:	48 8d 35 82 19 00 00 	lea    0x1982(%rip),%rsi        # 403590 <_IO_stdin_used+0x3b0>
  401c0e:	bf 01 00 00 00       	mov    $0x1,%edi
  401c13:	b8 00 00 00 00       	mov    $0x0,%eax
  401c18:	e8 43 f2 ff ff       	callq  400e60 <__printf_chk@plt>
  401c1d:	bf 03 00 00 00       	mov    $0x3,%edi
  401c22:	e8 3f 04 00 00       	callq  402066 <fail>
  401c27:	eb d1                	jmp    401bfa <touch3+0x43>

0000000000401c29 <test>:
  401c29:	48 83 ec 08          	sub    $0x8,%rsp
  401c2d:	b8 00 00 00 00       	mov    $0x0,%eax
  401c32:	e8 b3 fd ff ff       	callq  4019ea <getbuf>
  401c37:	89 c2                	mov    %eax,%edx
  401c39:	48 8d 35 78 19 00 00 	lea    0x1978(%rip),%rsi        # 4035b8 <_IO_stdin_used+0x3d8>
  401c40:	bf 01 00 00 00       	mov    $0x1,%edi
  401c45:	b8 00 00 00 00       	mov    $0x0,%eax
  401c4a:	e8 11 f2 ff ff       	callq  400e60 <__printf_chk@plt>
  401c4f:	48 83 c4 08          	add    $0x8,%rsp
  401c53:	c3                   	retq   

0000000000401c54 <test2>:
  401c54:	48 83 ec 08          	sub    $0x8,%rsp
  401c58:	b8 00 00 00 00       	mov    $0x0,%eax
  401c5d:	e8 9e fd ff ff       	callq  401a00 <getbuf_withcanary>
  401c62:	89 c2                	mov    %eax,%edx
  401c64:	48 8d 35 75 19 00 00 	lea    0x1975(%rip),%rsi        # 4035e0 <_IO_stdin_used+0x400>
  401c6b:	bf 01 00 00 00       	mov    $0x1,%edi
  401c70:	b8 00 00 00 00       	mov    $0x0,%eax
  401c75:	e8 e6 f1 ff ff       	callq  400e60 <__printf_chk@plt>
  401c7a:	48 83 c4 08          	add    $0x8,%rsp
  401c7e:	c3                   	retq   

0000000000401c7f <save_char>:
  401c7f:	8b 05 bf 44 20 00    	mov    0x2044bf(%rip),%eax        # 606144 <gets_cnt>
  401c85:	3d ff 03 00 00       	cmp    $0x3ff,%eax
  401c8a:	7f 4a                	jg     401cd6 <save_char+0x57>
  401c8c:	89 f9                	mov    %edi,%ecx
  401c8e:	c0 e9 04             	shr    $0x4,%cl
  401c91:	8d 14 40             	lea    (%rax,%rax,2),%edx
  401c94:	4c 8d 05 b5 1c 00 00 	lea    0x1cb5(%rip),%r8        # 403950 <trans_char>
  401c9b:	83 e1 0f             	and    $0xf,%ecx
  401c9e:	45 0f b6 0c 08       	movzbl (%r8,%rcx,1),%r9d
  401ca3:	48 8d 0d 96 38 20 00 	lea    0x203896(%rip),%rcx        # 605540 <gets_buf>
  401caa:	48 63 f2             	movslq %edx,%rsi
  401cad:	44 88 0c 31          	mov    %r9b,(%rcx,%rsi,1)
  401cb1:	8d 72 01             	lea    0x1(%rdx),%esi
  401cb4:	83 e7 0f             	and    $0xf,%edi
  401cb7:	41 0f b6 3c 38       	movzbl (%r8,%rdi,1),%edi
  401cbc:	48 63 f6             	movslq %esi,%rsi
  401cbf:	40 88 3c 31          	mov    %dil,(%rcx,%rsi,1)
  401cc3:	83 c2 02             	add    $0x2,%edx
  401cc6:	48 63 d2             	movslq %edx,%rdx
  401cc9:	c6 04 11 20          	movb   $0x20,(%rcx,%rdx,1)
  401ccd:	83 c0 01             	add    $0x1,%eax
  401cd0:	89 05 6e 44 20 00    	mov    %eax,0x20446e(%rip)        # 606144 <gets_cnt>
  401cd6:	f3 c3                	repz retq 

0000000000401cd8 <save_term>:
  401cd8:	8b 05 66 44 20 00    	mov    0x204466(%rip),%eax        # 606144 <gets_cnt>
  401cde:	8d 04 40             	lea    (%rax,%rax,2),%eax
  401ce1:	48 98                	cltq   
  401ce3:	48 8d 15 56 38 20 00 	lea    0x203856(%rip),%rdx        # 605540 <gets_buf>
  401cea:	c6 04 02 00          	movb   $0x0,(%rdx,%rax,1)
  401cee:	c3                   	retq   

0000000000401cef <check_fail>:
  401cef:	48 83 ec 08          	sub    $0x8,%rsp
  401cf3:	0f be 15 4e 44 20 00 	movsbl 0x20444e(%rip),%edx        # 606148 <target_prefix>
  401cfa:	4c 8d 05 3f 38 20 00 	lea    0x20383f(%rip),%r8        # 605540 <gets_buf>
  401d01:	8b 0d 11 38 20 00    	mov    0x203811(%rip),%ecx        # 605518 <check_level>
  401d07:	48 8d 35 00 19 00 00 	lea    0x1900(%rip),%rsi        # 40360e <_IO_stdin_used+0x42e>
  401d0e:	bf 01 00 00 00       	mov    $0x1,%edi
  401d13:	b8 00 00 00 00       	mov    $0x0,%eax
  401d18:	e8 43 f1 ff ff       	callq  400e60 <__printf_chk@plt>
  401d1d:	bf 01 00 00 00       	mov    $0x1,%edi
  401d22:	e8 89 f1 ff ff       	callq  400eb0 <exit@plt>

0000000000401d27 <Gets>:
  401d27:	41 54                	push   %r12
  401d29:	55                   	push   %rbp
  401d2a:	53                   	push   %rbx
  401d2b:	49 89 fc             	mov    %rdi,%r12
  401d2e:	c7 05 0c 44 20 00 00 	movl   $0x0,0x20440c(%rip)        # 606144 <gets_cnt>
  401d35:	00 00 00 
  401d38:	48 89 fb             	mov    %rdi,%rbx
  401d3b:	eb 11                	jmp    401d4e <Gets+0x27>
  401d3d:	48 8d 6b 01          	lea    0x1(%rbx),%rbp
  401d41:	88 03                	mov    %al,(%rbx)
  401d43:	0f b6 f8             	movzbl %al,%edi
  401d46:	e8 34 ff ff ff       	callq  401c7f <save_char>
  401d4b:	48 89 eb             	mov    %rbp,%rbx
  401d4e:	48 8b 3d bb 37 20 00 	mov    0x2037bb(%rip),%rdi        # 605510 <infile>
  401d55:	e8 d6 f0 ff ff       	callq  400e30 <_IO_getc@plt>
  401d5a:	83 f8 ff             	cmp    $0xffffffff,%eax
  401d5d:	74 05                	je     401d64 <Gets+0x3d>
  401d5f:	83 f8 0a             	cmp    $0xa,%eax
  401d62:	75 d9                	jne    401d3d <Gets+0x16>
  401d64:	c6 03 00             	movb   $0x0,(%rbx)
  401d67:	b8 00 00 00 00       	mov    $0x0,%eax
  401d6c:	e8 67 ff ff ff       	callq  401cd8 <save_term>
  401d71:	4c 89 e0             	mov    %r12,%rax
  401d74:	5b                   	pop    %rbx
  401d75:	5d                   	pop    %rbp
  401d76:	41 5c                	pop    %r12
  401d78:	c3                   	retq   

0000000000401d79 <notify_server>:
  401d79:	55                   	push   %rbp
  401d7a:	53                   	push   %rbx
  401d7b:	48 81 ec 18 40 00 00 	sub    $0x4018,%rsp
  401d82:	64 48 8b 04 25 28 00 	mov    %fs:0x28,%rax
  401d89:	00 00 
  401d8b:	48 89 84 24 08 40 00 	mov    %rax,0x4008(%rsp)
  401d92:	00 
  401d93:	31 c0                	xor    %eax,%eax
  401d95:	83 3d 8c 37 20 00 00 	cmpl   $0x0,0x20378c(%rip)        # 605528 <is_checker>
  401d9c:	0f 85 cb 01 00 00    	jne    401f6d <notify_server+0x1f4>
  401da2:	89 fb                	mov    %edi,%ebx
  401da4:	8b 05 9a 43 20 00    	mov    0x20439a(%rip),%eax        # 606144 <gets_cnt>
  401daa:	83 c0 64             	add    $0x64,%eax
  401dad:	3d 00 20 00 00       	cmp    $0x2000,%eax
  401db2:	0f 8f bd 00 00 00    	jg     401e75 <notify_server+0xfc>
  401db8:	0f be 05 89 43 20 00 	movsbl 0x204389(%rip),%eax        # 606148 <target_prefix>
  401dbf:	83 3d e2 36 20 00 00 	cmpl   $0x0,0x2036e2(%rip)        # 6054a8 <notify>
  401dc6:	0f 84 c9 00 00 00    	je     401e95 <notify_server+0x11c>
  401dcc:	8b 15 4e 37 20 00    	mov    0x20374e(%rip),%edx        # 605520 <authkey>
  401dd2:	85 db                	test   %ebx,%ebx
  401dd4:	0f 84 c5 00 00 00    	je     401e9f <notify_server+0x126>
  401dda:	48 8d 2d 43 18 00 00 	lea    0x1843(%rip),%rbp        # 403624 <_IO_stdin_used+0x444>
  401de1:	48 89 e7             	mov    %rsp,%rdi
  401de4:	48 8d 0d 55 37 20 00 	lea    0x203755(%rip),%rcx        # 605540 <gets_buf>
  401deb:	51                   	push   %rcx
  401dec:	56                   	push   %rsi
  401ded:	50                   	push   %rax
  401dee:	52                   	push   %rdx
  401def:	49 89 e9             	mov    %rbp,%r9
  401df2:	44 8b 05 57 33 20 00 	mov    0x203357(%rip),%r8d        # 605150 <target_id>
  401df9:	48 8d 0d 2e 18 00 00 	lea    0x182e(%rip),%rcx        # 40362e <_IO_stdin_used+0x44e>
  401e00:	ba 00 20 00 00       	mov    $0x2000,%edx
  401e05:	be 01 00 00 00       	mov    $0x1,%esi
  401e0a:	b8 00 00 00 00       	mov    $0x0,%eax
  401e0f:	e8 cc f0 ff ff       	callq  400ee0 <__sprintf_chk@plt>
  401e14:	48 83 c4 20          	add    $0x20,%rsp
  401e18:	83 3d 89 36 20 00 00 	cmpl   $0x0,0x203689(%rip)        # 6054a8 <notify>
  401e1f:	0f 84 bf 00 00 00    	je     401ee4 <notify_server+0x16b>
  401e25:	48 89 e1             	mov    %rsp,%rcx
  401e28:	4c 8d 8c 24 00 20 00 	lea    0x2000(%rsp),%r9
  401e2f:	00 
  401e30:	41 b8 00 00 00 00    	mov    $0x0,%r8d
  401e36:	48 8b 15 2b 33 20 00 	mov    0x20332b(%rip),%rdx        # 605168 <lab>
  401e3d:	48 8b 35 2c 33 20 00 	mov    0x20332c(%rip),%rsi        # 605170 <course>
  401e44:	48 8b 3d 15 33 20 00 	mov    0x203315(%rip),%rdi        # 605160 <user_id>
  401e4b:	e8 4c 12 00 00       	callq  40309c <driver_post>
  401e50:	85 c0                	test   %eax,%eax
  401e52:	78 57                	js     401eab <notify_server+0x132>
  401e54:	85 db                	test   %ebx,%ebx
  401e56:	74 7b                	je     401ed3 <notify_server+0x15a>
  401e58:	48 8d 3d 09 19 00 00 	lea    0x1909(%rip),%rdi        # 403768 <_IO_stdin_used+0x588>
  401e5f:	e8 dc ee ff ff       	callq  400d40 <puts@plt>
  401e64:	48 8d 3d eb 17 00 00 	lea    0x17eb(%rip),%rdi        # 403656 <_IO_stdin_used+0x476>
  401e6b:	e8 d0 ee ff ff       	callq  400d40 <puts@plt>
  401e70:	e9 f8 00 00 00       	jmpq   401f6d <notify_server+0x1f4>
  401e75:	48 8d 35 bc 18 00 00 	lea    0x18bc(%rip),%rsi        # 403738 <_IO_stdin_used+0x558>
  401e7c:	bf 01 00 00 00       	mov    $0x1,%edi
  401e81:	b8 00 00 00 00       	mov    $0x0,%eax
  401e86:	e8 d5 ef ff ff       	callq  400e60 <__printf_chk@plt>
  401e8b:	bf 01 00 00 00       	mov    $0x1,%edi
  401e90:	e8 1b f0 ff ff       	callq  400eb0 <exit@plt>
  401e95:	ba ff ff ff ff       	mov    $0xffffffff,%edx
  401e9a:	e9 33 ff ff ff       	jmpq   401dd2 <notify_server+0x59>
  401e9f:	48 8d 2d 83 17 00 00 	lea    0x1783(%rip),%rbp        # 403629 <_IO_stdin_used+0x449>
  401ea6:	e9 36 ff ff ff       	jmpq   401de1 <notify_server+0x68>
  401eab:	48 8d 94 24 00 20 00 	lea    0x2000(%rsp),%rdx
  401eb2:	00 
  401eb3:	48 8d 35 90 17 00 00 	lea    0x1790(%rip),%rsi        # 40364a <_IO_stdin_used+0x46a>
  401eba:	bf 01 00 00 00       	mov    $0x1,%edi
  401ebf:	b8 00 00 00 00       	mov    $0x0,%eax
  401ec4:	e8 97 ef ff ff       	callq  400e60 <__printf_chk@plt>
  401ec9:	bf 01 00 00 00       	mov    $0x1,%edi
  401ece:	e8 dd ef ff ff       	callq  400eb0 <exit@plt>
  401ed3:	48 8d 3d 86 17 00 00 	lea    0x1786(%rip),%rdi        # 403660 <_IO_stdin_used+0x480>
  401eda:	e8 61 ee ff ff       	callq  400d40 <puts@plt>
  401edf:	e9 89 00 00 00       	jmpq   401f6d <notify_server+0x1f4>
  401ee4:	48 89 ea             	mov    %rbp,%rdx
  401ee7:	48 8d 35 b2 18 00 00 	lea    0x18b2(%rip),%rsi        # 4037a0 <_IO_stdin_used+0x5c0>
  401eee:	bf 01 00 00 00       	mov    $0x1,%edi
  401ef3:	b8 00 00 00 00       	mov    $0x0,%eax
  401ef8:	e8 63 ef ff ff       	callq  400e60 <__printf_chk@plt>
  401efd:	48 8b 15 5c 32 20 00 	mov    0x20325c(%rip),%rdx        # 605160 <user_id>
  401f04:	48 8d 35 5c 17 00 00 	lea    0x175c(%rip),%rsi        # 403667 <_IO_stdin_used+0x487>
  401f0b:	bf 01 00 00 00       	mov    $0x1,%edi
  401f10:	b8 00 00 00 00       	mov    $0x0,%eax
  401f15:	e8 46 ef ff ff       	callq  400e60 <__printf_chk@plt>
  401f1a:	48 8b 15 4f 32 20 00 	mov    0x20324f(%rip),%rdx        # 605170 <course>
  401f21:	48 8d 35 4c 17 00 00 	lea    0x174c(%rip),%rsi        # 403674 <_IO_stdin_used+0x494>
  401f28:	bf 01 00 00 00       	mov    $0x1,%edi
  401f2d:	b8 00 00 00 00       	mov    $0x0,%eax
  401f32:	e8 29 ef ff ff       	callq  400e60 <__printf_chk@plt>
  401f37:	48 8b 15 2a 32 20 00 	mov    0x20322a(%rip),%rdx        # 605168 <lab>
  401f3e:	48 8d 35 3b 17 00 00 	lea    0x173b(%rip),%rsi        # 403680 <_IO_stdin_used+0x4a0>
  401f45:	bf 01 00 00 00       	mov    $0x1,%edi
  401f4a:	b8 00 00 00 00       	mov    $0x0,%eax
  401f4f:	e8 0c ef ff ff       	callq  400e60 <__printf_chk@plt>
  401f54:	48 89 e2             	mov    %rsp,%rdx
  401f57:	48 8d 35 2b 17 00 00 	lea    0x172b(%rip),%rsi        # 403689 <_IO_stdin_used+0x4a9>
  401f5e:	bf 01 00 00 00       	mov    $0x1,%edi
  401f63:	b8 00 00 00 00       	mov    $0x0,%eax
  401f68:	e8 f3 ee ff ff       	callq  400e60 <__printf_chk@plt>
  401f6d:	48 8b 84 24 08 40 00 	mov    0x4008(%rsp),%rax
  401f74:	00 
  401f75:	64 48 33 04 25 28 00 	xor    %fs:0x28,%rax
  401f7c:	00 00 
  401f7e:	75 0a                	jne    401f8a <notify_server+0x211>
  401f80:	48 81 c4 18 40 00 00 	add    $0x4018,%rsp
  401f87:	5b                   	pop    %rbx
  401f88:	5d                   	pop    %rbp
  401f89:	c3                   	retq   
  401f8a:	e8 52 02 00 00       	callq  4021e1 <__stack_chk_fail>

0000000000401f8f <validate>:
  401f8f:	53                   	push   %rbx
  401f90:	89 fb                	mov    %edi,%ebx
  401f92:	83 3d 8f 35 20 00 00 	cmpl   $0x0,0x20358f(%rip)        # 605528 <is_checker>
  401f99:	74 79                	je     402014 <validate+0x85>
  401f9b:	39 3d 7b 35 20 00    	cmp    %edi,0x20357b(%rip)        # 60551c <vlevel>
  401fa1:	75 39                	jne    401fdc <validate+0x4d>
  401fa3:	8b 15 6f 35 20 00    	mov    0x20356f(%rip),%edx        # 605518 <check_level>
  401fa9:	39 fa                	cmp    %edi,%edx
  401fab:	75 45                	jne    401ff2 <validate+0x63>
  401fad:	0f be 0d 94 41 20 00 	movsbl 0x204194(%rip),%ecx        # 606148 <target_prefix>
  401fb4:	4c 8d 0d 85 35 20 00 	lea    0x203585(%rip),%r9        # 605540 <gets_buf>
  401fbb:	41 89 f8             	mov    %edi,%r8d
  401fbe:	8b 15 5c 35 20 00    	mov    0x20355c(%rip),%edx        # 605520 <authkey>
  401fc4:	48 8d 35 25 18 00 00 	lea    0x1825(%rip),%rsi        # 4037f0 <_IO_stdin_used+0x610>
  401fcb:	bf 01 00 00 00       	mov    $0x1,%edi
  401fd0:	b8 00 00 00 00       	mov    $0x0,%eax
  401fd5:	e8 86 ee ff ff       	callq  400e60 <__printf_chk@plt>
  401fda:	5b                   	pop    %rbx
  401fdb:	c3                   	retq   
  401fdc:	48 8d 3d b2 16 00 00 	lea    0x16b2(%rip),%rdi        # 403695 <_IO_stdin_used+0x4b5>
  401fe3:	e8 58 ed ff ff       	callq  400d40 <puts@plt>
  401fe8:	b8 00 00 00 00       	mov    $0x0,%eax
  401fed:	e8 fd fc ff ff       	callq  401cef <check_fail>
  401ff2:	89 f9                	mov    %edi,%ecx
  401ff4:	48 8d 35 cd 17 00 00 	lea    0x17cd(%rip),%rsi        # 4037c8 <_IO_stdin_used+0x5e8>
  401ffb:	bf 01 00 00 00       	mov    $0x1,%edi
  402000:	b8 00 00 00 00       	mov    $0x0,%eax
  402005:	e8 56 ee ff ff       	callq  400e60 <__printf_chk@plt>
  40200a:	b8 00 00 00 00       	mov    $0x0,%eax
  40200f:	e8 db fc ff ff       	callq  401cef <check_fail>
  402014:	39 3d 02 35 20 00    	cmp    %edi,0x203502(%rip)        # 60551c <vlevel>
  40201a:	74 1a                	je     402036 <validate+0xa7>
  40201c:	48 8d 3d 72 16 00 00 	lea    0x1672(%rip),%rdi        # 403695 <_IO_stdin_used+0x4b5>
  402023:	e8 18 ed ff ff       	callq  400d40 <puts@plt>
  402028:	89 de                	mov    %ebx,%esi
  40202a:	bf 00 00 00 00       	mov    $0x0,%edi
  40202f:	e8 45 fd ff ff       	callq  401d79 <notify_server>
  402034:	eb a4                	jmp    401fda <validate+0x4b>
  402036:	0f be 0d 0b 41 20 00 	movsbl 0x20410b(%rip),%ecx        # 606148 <target_prefix>
  40203d:	89 fa                	mov    %edi,%edx
  40203f:	48 8d 35 d2 17 00 00 	lea    0x17d2(%rip),%rsi        # 403818 <_IO_stdin_used+0x638>
  402046:	bf 01 00 00 00       	mov    $0x1,%edi
  40204b:	b8 00 00 00 00       	mov    $0x0,%eax
  402050:	e8 0b ee ff ff       	callq  400e60 <__printf_chk@plt>
  402055:	89 de                	mov    %ebx,%esi
  402057:	bf 01 00 00 00       	mov    $0x1,%edi
  40205c:	e8 18 fd ff ff       	callq  401d79 <notify_server>
  402061:	e9 74 ff ff ff       	jmpq   401fda <validate+0x4b>

0000000000402066 <fail>:
  402066:	48 83 ec 08          	sub    $0x8,%rsp
  40206a:	83 3d b7 34 20 00 00 	cmpl   $0x0,0x2034b7(%rip)        # 605528 <is_checker>
  402071:	75 11                	jne    402084 <fail+0x1e>
  402073:	89 fe                	mov    %edi,%esi
  402075:	bf 00 00 00 00       	mov    $0x0,%edi
  40207a:	e8 fa fc ff ff       	callq  401d79 <notify_server>
  40207f:	48 83 c4 08          	add    $0x8,%rsp
  402083:	c3                   	retq   
  402084:	b8 00 00 00 00       	mov    $0x0,%eax
  402089:	e8 61 fc ff ff       	callq  401cef <check_fail>

000000000040208e <bushandler>:
  40208e:	48 83 ec 08          	sub    $0x8,%rsp
  402092:	83 3d 8f 34 20 00 00 	cmpl   $0x0,0x20348f(%rip)        # 605528 <is_checker>
  402099:	74 16                	je     4020b1 <bushandler+0x23>
  40209b:	48 8d 3d 11 16 00 00 	lea    0x1611(%rip),%rdi        # 4036b3 <_IO_stdin_used+0x4d3>
  4020a2:	e8 99 ec ff ff       	callq  400d40 <puts@plt>
  4020a7:	b8 00 00 00 00       	mov    $0x0,%eax
  4020ac:	e8 3e fc ff ff       	callq  401cef <check_fail>
  4020b1:	48 8d 3d 98 17 00 00 	lea    0x1798(%rip),%rdi        # 403850 <_IO_stdin_used+0x670>
  4020b8:	e8 83 ec ff ff       	callq  400d40 <puts@plt>
  4020bd:	48 8d 3d f9 15 00 00 	lea    0x15f9(%rip),%rdi        # 4036bd <_IO_stdin_used+0x4dd>
  4020c4:	e8 77 ec ff ff       	callq  400d40 <puts@plt>
  4020c9:	be 00 00 00 00       	mov    $0x0,%esi
  4020ce:	bf 00 00 00 00       	mov    $0x0,%edi
  4020d3:	e8 a1 fc ff ff       	callq  401d79 <notify_server>
  4020d8:	bf 01 00 00 00       	mov    $0x1,%edi
  4020dd:	e8 ce ed ff ff       	callq  400eb0 <exit@plt>

00000000004020e2 <seghandler>:
  4020e2:	48 83 ec 08          	sub    $0x8,%rsp
  4020e6:	83 3d 3b 34 20 00 00 	cmpl   $0x0,0x20343b(%rip)        # 605528 <is_checker>
  4020ed:	74 16                	je     402105 <seghandler+0x23>
  4020ef:	48 8d 3d dd 15 00 00 	lea    0x15dd(%rip),%rdi        # 4036d3 <_IO_stdin_used+0x4f3>
  4020f6:	e8 45 ec ff ff       	callq  400d40 <puts@plt>
  4020fb:	b8 00 00 00 00       	mov    $0x0,%eax
  402100:	e8 ea fb ff ff       	callq  401cef <check_fail>
  402105:	48 8d 3d 64 17 00 00 	lea    0x1764(%rip),%rdi        # 403870 <_IO_stdin_used+0x690>
  40210c:	e8 2f ec ff ff       	callq  400d40 <puts@plt>
  402111:	48 8d 3d a5 15 00 00 	lea    0x15a5(%rip),%rdi        # 4036bd <_IO_stdin_used+0x4dd>
  402118:	e8 23 ec ff ff       	callq  400d40 <puts@plt>
  40211d:	be 00 00 00 00       	mov    $0x0,%esi
  402122:	bf 00 00 00 00       	mov    $0x0,%edi
  402127:	e8 4d fc ff ff       	callq  401d79 <notify_server>
  40212c:	bf 01 00 00 00       	mov    $0x1,%edi
  402131:	e8 7a ed ff ff       	callq  400eb0 <exit@plt>

0000000000402136 <illegalhandler>:
  402136:	48 83 ec 08          	sub    $0x8,%rsp
  40213a:	83 3d e7 33 20 00 00 	cmpl   $0x0,0x2033e7(%rip)        # 605528 <is_checker>
  402141:	74 16                	je     402159 <illegalhandler+0x23>
  402143:	48 8d 3d 9c 15 00 00 	lea    0x159c(%rip),%rdi        # 4036e6 <_IO_stdin_used+0x506>
  40214a:	e8 f1 eb ff ff       	callq  400d40 <puts@plt>
  40214f:	b8 00 00 00 00       	mov    $0x0,%eax
  402154:	e8 96 fb ff ff       	callq  401cef <check_fail>
  402159:	48 8d 3d 38 17 00 00 	lea    0x1738(%rip),%rdi        # 403898 <_IO_stdin_used+0x6b8>
  402160:	e8 db eb ff ff       	callq  400d40 <puts@plt>
  402165:	48 8d 3d 51 15 00 00 	lea    0x1551(%rip),%rdi        # 4036bd <_IO_stdin_used+0x4dd>
  40216c:	e8 cf eb ff ff       	callq  400d40 <puts@plt>
  402171:	be 00 00 00 00       	mov    $0x0,%esi
  402176:	bf 00 00 00 00       	mov    $0x0,%edi
  40217b:	e8 f9 fb ff ff       	callq  401d79 <notify_server>
  402180:	bf 01 00 00 00       	mov    $0x1,%edi
  402185:	e8 26 ed ff ff       	callq  400eb0 <exit@plt>

000000000040218a <sigalrmhandler>:
  40218a:	48 83 ec 08          	sub    $0x8,%rsp
  40218e:	83 3d 93 33 20 00 00 	cmpl   $0x0,0x203393(%rip)        # 605528 <is_checker>
  402195:	74 16                	je     4021ad <sigalrmhandler+0x23>
  402197:	48 8d 3d 5c 15 00 00 	lea    0x155c(%rip),%rdi        # 4036fa <_IO_stdin_used+0x51a>
  40219e:	e8 9d eb ff ff       	callq  400d40 <puts@plt>
  4021a3:	b8 00 00 00 00       	mov    $0x0,%eax
  4021a8:	e8 42 fb ff ff       	callq  401cef <check_fail>
  4021ad:	ba 02 00 00 00       	mov    $0x2,%edx
  4021b2:	48 8d 35 0f 17 00 00 	lea    0x170f(%rip),%rsi        # 4038c8 <_IO_stdin_used+0x6e8>
  4021b9:	bf 01 00 00 00       	mov    $0x1,%edi
  4021be:	b8 00 00 00 00       	mov    $0x0,%eax
  4021c3:	e8 98 ec ff ff       	callq  400e60 <__printf_chk@plt>
  4021c8:	be 00 00 00 00       	mov    $0x0,%esi
  4021cd:	bf 00 00 00 00       	mov    $0x0,%edi
  4021d2:	e8 a2 fb ff ff       	callq  401d79 <notify_server>
  4021d7:	bf 01 00 00 00       	mov    $0x1,%edi
  4021dc:	e8 cf ec ff ff       	callq  400eb0 <exit@plt>

00000000004021e1 <__stack_chk_fail>:
  4021e1:	48 83 ec 08          	sub    $0x8,%rsp
  4021e5:	83 3d 3c 33 20 00 00 	cmpl   $0x0,0x20333c(%rip)        # 605528 <is_checker>
  4021ec:	74 16                	je     402204 <__stack_chk_fail+0x23>
  4021ee:	48 8d 3d 0d 15 00 00 	lea    0x150d(%rip),%rdi        # 403702 <_IO_stdin_used+0x522>
  4021f5:	e8 46 eb ff ff       	callq  400d40 <puts@plt>
  4021fa:	b8 00 00 00 00       	mov    $0x0,%eax
  4021ff:	e8 eb fa ff ff       	callq  401cef <check_fail>
  402204:	48 8d 3d f5 16 00 00 	lea    0x16f5(%rip),%rdi        # 403900 <_IO_stdin_used+0x720>
  40220b:	e8 30 eb ff ff       	callq  400d40 <puts@plt>
  402210:	48 8d 3d a6 14 00 00 	lea    0x14a6(%rip),%rdi        # 4036bd <_IO_stdin_used+0x4dd>
  402217:	e8 24 eb ff ff       	callq  400d40 <puts@plt>
  40221c:	be 00 00 00 00       	mov    $0x0,%esi
  402221:	bf 00 00 00 00       	mov    $0x0,%edi
  402226:	e8 4e fb ff ff       	callq  401d79 <notify_server>
  40222b:	bf 01 00 00 00       	mov    $0x1,%edi
  402230:	e8 7b ec ff ff       	callq  400eb0 <exit@plt>

0000000000402235 <launch>:
  402235:	55                   	push   %rbp
  402236:	48 89 e5             	mov    %rsp,%rbp
  402239:	53                   	push   %rbx
  40223a:	48 83 ec 18          	sub    $0x18,%rsp
  40223e:	48 89 fa             	mov    %rdi,%rdx
  402241:	89 f3                	mov    %esi,%ebx
  402243:	64 48 8b 04 25 28 00 	mov    %fs:0x28,%rax
  40224a:	00 00 
  40224c:	48 89 45 e8          	mov    %rax,-0x18(%rbp)
  402250:	31 c0                	xor    %eax,%eax
  402252:	48 8d 47 1e          	lea    0x1e(%rdi),%rax
  402256:	48 83 e0 f0          	and    $0xfffffffffffffff0,%rax
  40225a:	48 29 c4             	sub    %rax,%rsp
  40225d:	48 8d 7c 24 0f       	lea    0xf(%rsp),%rdi
  402262:	48 83 e7 f0          	and    $0xfffffffffffffff0,%rdi
  402266:	be f4 00 00 00       	mov    $0xf4,%esi
  40226b:	e8 00 eb ff ff       	callq  400d70 <memset@plt>
  402270:	48 8b 05 49 32 20 00 	mov    0x203249(%rip),%rax        # 6054c0 <stdin@@GLIBC_2.2.5>
  402277:	48 39 05 92 32 20 00 	cmp    %rax,0x203292(%rip)        # 605510 <infile>
  40227e:	74 42                	je     4022c2 <launch+0x8d>
  402280:	c7 05 92 32 20 00 00 	movl   $0x0,0x203292(%rip)        # 60551c <vlevel>
  402287:	00 00 00 
  40228a:	85 db                	test   %ebx,%ebx
  40228c:	75 4c                	jne    4022da <launch+0xa5>
  40228e:	b8 00 00 00 00       	mov    $0x0,%eax
  402293:	e8 91 f9 ff ff       	callq  401c29 <test>
  402298:	83 3d 89 32 20 00 00 	cmpl   $0x0,0x203289(%rip)        # 605528 <is_checker>
  40229f:	75 45                	jne    4022e6 <launch+0xb1>
  4022a1:	48 8d 3d 81 14 00 00 	lea    0x1481(%rip),%rdi        # 403729 <_IO_stdin_used+0x549>
  4022a8:	e8 93 ea ff ff       	callq  400d40 <puts@plt>
  4022ad:	48 8b 45 e8          	mov    -0x18(%rbp),%rax
  4022b1:	64 48 33 04 25 28 00 	xor    %fs:0x28,%rax
  4022b8:	00 00 
  4022ba:	75 40                	jne    4022fc <launch+0xc7>
  4022bc:	48 8b 5d f8          	mov    -0x8(%rbp),%rbx
  4022c0:	c9                   	leaveq 
  4022c1:	c3                   	retq   
  4022c2:	48 8d 35 48 14 00 00 	lea    0x1448(%rip),%rsi        # 403711 <_IO_stdin_used+0x531>
  4022c9:	bf 01 00 00 00       	mov    $0x1,%edi
  4022ce:	b8 00 00 00 00       	mov    $0x0,%eax
  4022d3:	e8 88 eb ff ff       	callq  400e60 <__printf_chk@plt>
  4022d8:	eb a6                	jmp    402280 <launch+0x4b>
  4022da:	b8 00 00 00 00       	mov    $0x0,%eax
  4022df:	e8 70 f9 ff ff       	callq  401c54 <test2>
  4022e4:	eb b2                	jmp    402298 <launch+0x63>
  4022e6:	48 8d 3d 31 14 00 00 	lea    0x1431(%rip),%rdi        # 40371e <_IO_stdin_used+0x53e>
  4022ed:	e8 4e ea ff ff       	callq  400d40 <puts@plt>
  4022f2:	b8 00 00 00 00       	mov    $0x0,%eax
  4022f7:	e8 f3 f9 ff ff       	callq  401cef <check_fail>
  4022fc:	e8 e0 fe ff ff       	callq  4021e1 <__stack_chk_fail>

0000000000402301 <stable_launch>:
  402301:	55                   	push   %rbp
  402302:	53                   	push   %rbx
  402303:	48 83 ec 08          	sub    $0x8,%rsp
  402307:	89 f5                	mov    %esi,%ebp
  402309:	48 89 3d f8 31 20 00 	mov    %rdi,0x2031f8(%rip)        # 605508 <global_offset>
  402310:	41 b9 00 00 00 00    	mov    $0x0,%r9d
  402316:	41 b8 00 00 00 00    	mov    $0x0,%r8d
  40231c:	b9 32 01 00 00       	mov    $0x132,%ecx
  402321:	ba 07 00 00 00       	mov    $0x7,%edx
  402326:	be 00 00 10 00       	mov    $0x100000,%esi
  40232b:	bf 00 60 58 55       	mov    $0x55586000,%edi
  402330:	e8 2b ea ff ff       	callq  400d60 <mmap@plt>
  402335:	48 89 c3             	mov    %rax,%rbx
  402338:	48 3d 00 60 58 55    	cmp    $0x55586000,%rax
  40233e:	75 4a                	jne    40238a <stable_launch+0x89>
  402340:	48 8d 90 f8 ff 0f 00 	lea    0xffff8(%rax),%rdx
  402347:	48 89 15 02 3e 20 00 	mov    %rdx,0x203e02(%rip)        # 606150 <stack_top>
  40234e:	48 89 e0             	mov    %rsp,%rax
  402351:	48 89 d4             	mov    %rdx,%rsp
  402354:	48 89 c2             	mov    %rax,%rdx
  402357:	48 89 15 a2 31 20 00 	mov    %rdx,0x2031a2(%rip)        # 605500 <global_save_stack>
  40235e:	89 ee                	mov    %ebp,%esi
  402360:	48 8b 3d a1 31 20 00 	mov    0x2031a1(%rip),%rdi        # 605508 <global_offset>
  402367:	e8 c9 fe ff ff       	callq  402235 <launch>
  40236c:	48 8b 05 8d 31 20 00 	mov    0x20318d(%rip),%rax        # 605500 <global_save_stack>
  402373:	48 89 c4             	mov    %rax,%rsp
  402376:	be 00 00 10 00       	mov    $0x100000,%esi
  40237b:	48 89 df             	mov    %rbx,%rdi
  40237e:	e8 cd ea ff ff       	callq  400e50 <munmap@plt>
  402383:	48 83 c4 08          	add    $0x8,%rsp
  402387:	5b                   	pop    %rbx
  402388:	5d                   	pop    %rbp
  402389:	c3                   	retq   
  40238a:	be 00 00 10 00       	mov    $0x100000,%esi
  40238f:	48 89 c7             	mov    %rax,%rdi
  402392:	e8 b9 ea ff ff       	callq  400e50 <munmap@plt>
  402397:	b9 00 60 58 55       	mov    $0x55586000,%ecx
  40239c:	48 8d 15 85 15 00 00 	lea    0x1585(%rip),%rdx        # 403928 <_IO_stdin_used+0x748>
  4023a3:	be 01 00 00 00       	mov    $0x1,%esi
  4023a8:	48 8b 3d 31 31 20 00 	mov    0x203131(%rip),%rdi        # 6054e0 <stderr@@GLIBC_2.2.5>
  4023af:	b8 00 00 00 00       	mov    $0x0,%eax
  4023b4:	e8 17 eb ff ff       	callq  400ed0 <__fprintf_chk@plt>
  4023b9:	bf 01 00 00 00       	mov    $0x1,%edi
  4023be:	e8 ed ea ff ff       	callq  400eb0 <exit@plt>

00000000004023c3 <rio_readinitb>:
  4023c3:	89 37                	mov    %esi,(%rdi)
  4023c5:	c7 47 04 00 00 00 00 	movl   $0x0,0x4(%rdi)
  4023cc:	48 8d 47 10          	lea    0x10(%rdi),%rax
  4023d0:	48 89 47 08          	mov    %rax,0x8(%rdi)
  4023d4:	c3                   	retq   

00000000004023d5 <sigalrm_handler>:
  4023d5:	48 83 ec 08          	sub    $0x8,%rsp
  4023d9:	b9 00 00 00 00       	mov    $0x0,%ecx
  4023de:	48 8d 15 7b 15 00 00 	lea    0x157b(%rip),%rdx        # 403960 <trans_char+0x10>
  4023e5:	be 01 00 00 00       	mov    $0x1,%esi
  4023ea:	48 8b 3d ef 30 20 00 	mov    0x2030ef(%rip),%rdi        # 6054e0 <stderr@@GLIBC_2.2.5>
  4023f1:	b8 00 00 00 00       	mov    $0x0,%eax
  4023f6:	e8 d5 ea ff ff       	callq  400ed0 <__fprintf_chk@plt>
  4023fb:	bf 01 00 00 00       	mov    $0x1,%edi
  402400:	e8 ab ea ff ff       	callq  400eb0 <exit@plt>

0000000000402405 <rio_writen>:
  402405:	41 55                	push   %r13
  402407:	41 54                	push   %r12
  402409:	55                   	push   %rbp
  40240a:	53                   	push   %rbx
  40240b:	48 83 ec 08          	sub    $0x8,%rsp
  40240f:	41 89 fc             	mov    %edi,%r12d
  402412:	48 89 f5             	mov    %rsi,%rbp
  402415:	49 89 d5             	mov    %rdx,%r13
  402418:	48 89 d3             	mov    %rdx,%rbx
  40241b:	eb 06                	jmp    402423 <rio_writen+0x1e>
  40241d:	48 29 c3             	sub    %rax,%rbx
  402420:	48 01 c5             	add    %rax,%rbp
  402423:	48 85 db             	test   %rbx,%rbx
  402426:	74 24                	je     40244c <rio_writen+0x47>
  402428:	48 89 da             	mov    %rbx,%rdx
  40242b:	48 89 ee             	mov    %rbp,%rsi
  40242e:	44 89 e7             	mov    %r12d,%edi
  402431:	e8 1a e9 ff ff       	callq  400d50 <write@plt>
  402436:	48 85 c0             	test   %rax,%rax
  402439:	7f e2                	jg     40241d <rio_writen+0x18>
  40243b:	e8 b0 e8 ff ff       	callq  400cf0 <__errno_location@plt>
  402440:	83 38 04             	cmpl   $0x4,(%rax)
  402443:	75 15                	jne    40245a <rio_writen+0x55>
  402445:	b8 00 00 00 00       	mov    $0x0,%eax
  40244a:	eb d1                	jmp    40241d <rio_writen+0x18>
  40244c:	4c 89 e8             	mov    %r13,%rax
  40244f:	48 83 c4 08          	add    $0x8,%rsp
  402453:	5b                   	pop    %rbx
  402454:	5d                   	pop    %rbp
  402455:	41 5c                	pop    %r12
  402457:	41 5d                	pop    %r13
  402459:	c3                   	retq   
  40245a:	48 c7 c0 ff ff ff ff 	mov    $0xffffffffffffffff,%rax
  402461:	eb ec                	jmp    40244f <rio_writen+0x4a>

0000000000402463 <rio_read>:
  402463:	41 55                	push   %r13
  402465:	41 54                	push   %r12
  402467:	55                   	push   %rbp
  402468:	53                   	push   %rbx
  402469:	48 83 ec 08          	sub    $0x8,%rsp
  40246d:	48 89 fb             	mov    %rdi,%rbx
  402470:	49 89 f5             	mov    %rsi,%r13
  402473:	49 89 d4             	mov    %rdx,%r12
  402476:	eb 0a                	jmp    402482 <rio_read+0x1f>
  402478:	e8 73 e8 ff ff       	callq  400cf0 <__errno_location@plt>
  40247d:	83 38 04             	cmpl   $0x4,(%rax)
  402480:	75 5c                	jne    4024de <rio_read+0x7b>
  402482:	8b 6b 04             	mov    0x4(%rbx),%ebp
  402485:	85 ed                	test   %ebp,%ebp
  402487:	7f 24                	jg     4024ad <rio_read+0x4a>
  402489:	48 8d 6b 10          	lea    0x10(%rbx),%rbp
  40248d:	8b 3b                	mov    (%rbx),%edi
  40248f:	ba 00 20 00 00       	mov    $0x2000,%edx
  402494:	48 89 ee             	mov    %rbp,%rsi
  402497:	e8 04 e9 ff ff       	callq  400da0 <read@plt>
  40249c:	89 43 04             	mov    %eax,0x4(%rbx)
  40249f:	85 c0                	test   %eax,%eax
  4024a1:	78 d5                	js     402478 <rio_read+0x15>
  4024a3:	85 c0                	test   %eax,%eax
  4024a5:	74 40                	je     4024e7 <rio_read+0x84>
  4024a7:	48 89 6b 08          	mov    %rbp,0x8(%rbx)
  4024ab:	eb d5                	jmp    402482 <rio_read+0x1f>
  4024ad:	89 e8                	mov    %ebp,%eax
  4024af:	4c 39 e0             	cmp    %r12,%rax
  4024b2:	72 03                	jb     4024b7 <rio_read+0x54>
  4024b4:	44 89 e5             	mov    %r12d,%ebp
  4024b7:	4c 63 e5             	movslq %ebp,%r12
  4024ba:	48 8b 73 08          	mov    0x8(%rbx),%rsi
  4024be:	4c 89 e2             	mov    %r12,%rdx
  4024c1:	4c 89 ef             	mov    %r13,%rdi
  4024c4:	e8 37 e9 ff ff       	callq  400e00 <memcpy@plt>
  4024c9:	4c 01 63 08          	add    %r12,0x8(%rbx)
  4024cd:	29 6b 04             	sub    %ebp,0x4(%rbx)
  4024d0:	4c 89 e0             	mov    %r12,%rax
  4024d3:	48 83 c4 08          	add    $0x8,%rsp
  4024d7:	5b                   	pop    %rbx
  4024d8:	5d                   	pop    %rbp
  4024d9:	41 5c                	pop    %r12
  4024db:	41 5d                	pop    %r13
  4024dd:	c3                   	retq   
  4024de:	48 c7 c0 ff ff ff ff 	mov    $0xffffffffffffffff,%rax
  4024e5:	eb ec                	jmp    4024d3 <rio_read+0x70>
  4024e7:	b8 00 00 00 00       	mov    $0x0,%eax
  4024ec:	eb e5                	jmp    4024d3 <rio_read+0x70>

00000000004024ee <rio_readlineb>:
  4024ee:	41 55                	push   %r13
  4024f0:	41 54                	push   %r12
  4024f2:	55                   	push   %rbp
  4024f3:	53                   	push   %rbx
  4024f4:	48 83 ec 18          	sub    $0x18,%rsp
  4024f8:	49 89 fd             	mov    %rdi,%r13
  4024fb:	48 89 f5             	mov    %rsi,%rbp
  4024fe:	49 89 d4             	mov    %rdx,%r12
  402501:	64 48 8b 04 25 28 00 	mov    %fs:0x28,%rax
  402508:	00 00 
  40250a:	48 89 44 24 08       	mov    %rax,0x8(%rsp)
  40250f:	31 c0                	xor    %eax,%eax
  402511:	bb 01 00 00 00       	mov    $0x1,%ebx
  402516:	4c 39 e3             	cmp    %r12,%rbx
  402519:	73 47                	jae    402562 <rio_readlineb+0x74>
  40251b:	48 8d 74 24 07       	lea    0x7(%rsp),%rsi
  402520:	ba 01 00 00 00       	mov    $0x1,%edx
  402525:	4c 89 ef             	mov    %r13,%rdi
  402528:	e8 36 ff ff ff       	callq  402463 <rio_read>
  40252d:	83 f8 01             	cmp    $0x1,%eax
  402530:	75 1c                	jne    40254e <rio_readlineb+0x60>
  402532:	48 8d 45 01          	lea    0x1(%rbp),%rax
  402536:	0f b6 54 24 07       	movzbl 0x7(%rsp),%edx
  40253b:	88 55 00             	mov    %dl,0x0(%rbp)
  40253e:	80 7c 24 07 0a       	cmpb   $0xa,0x7(%rsp)
  402543:	74 1a                	je     40255f <rio_readlineb+0x71>
  402545:	48 83 c3 01          	add    $0x1,%rbx
  402549:	48 89 c5             	mov    %rax,%rbp
  40254c:	eb c8                	jmp    402516 <rio_readlineb+0x28>
  40254e:	85 c0                	test   %eax,%eax
  402550:	75 32                	jne    402584 <rio_readlineb+0x96>
  402552:	48 83 fb 01          	cmp    $0x1,%rbx
  402556:	75 0a                	jne    402562 <rio_readlineb+0x74>
  402558:	b8 00 00 00 00       	mov    $0x0,%eax
  40255d:	eb 0a                	jmp    402569 <rio_readlineb+0x7b>
  40255f:	48 89 c5             	mov    %rax,%rbp
  402562:	c6 45 00 00          	movb   $0x0,0x0(%rbp)
  402566:	48 89 d8             	mov    %rbx,%rax
  402569:	48 8b 4c 24 08       	mov    0x8(%rsp),%rcx
  40256e:	64 48 33 0c 25 28 00 	xor    %fs:0x28,%rcx
  402575:	00 00 
  402577:	75 14                	jne    40258d <rio_readlineb+0x9f>
  402579:	48 83 c4 18          	add    $0x18,%rsp
  40257d:	5b                   	pop    %rbx
  40257e:	5d                   	pop    %rbp
  40257f:	41 5c                	pop    %r12
  402581:	41 5d                	pop    %r13
  402583:	c3                   	retq   
  402584:	48 c7 c0 ff ff ff ff 	mov    $0xffffffffffffffff,%rax
  40258b:	eb dc                	jmp    402569 <rio_readlineb+0x7b>
  40258d:	e8 4f fc ff ff       	callq  4021e1 <__stack_chk_fail>

0000000000402592 <urlencode>:
  402592:	41 54                	push   %r12
  402594:	55                   	push   %rbp
  402595:	53                   	push   %rbx
  402596:	48 83 ec 10          	sub    $0x10,%rsp
  40259a:	48 89 fb             	mov    %rdi,%rbx
  40259d:	48 89 f5             	mov    %rsi,%rbp
  4025a0:	64 48 8b 04 25 28 00 	mov    %fs:0x28,%rax
  4025a7:	00 00 
  4025a9:	48 89 44 24 08       	mov    %rax,0x8(%rsp)
  4025ae:	31 c0                	xor    %eax,%eax
  4025b0:	48 c7 c1 ff ff ff ff 	mov    $0xffffffffffffffff,%rcx
  4025b7:	f2 ae                	repnz scas %es:(%rdi),%al
  4025b9:	48 89 ce             	mov    %rcx,%rsi
  4025bc:	48 f7 d6             	not    %rsi
  4025bf:	8d 46 ff             	lea    -0x1(%rsi),%eax
  4025c2:	eb 0f                	jmp    4025d3 <urlencode+0x41>
  4025c4:	44 88 45 00          	mov    %r8b,0x0(%rbp)
  4025c8:	48 8d 6d 01          	lea    0x1(%rbp),%rbp
  4025cc:	48 83 c3 01          	add    $0x1,%rbx
  4025d0:	44 89 e0             	mov    %r12d,%eax
  4025d3:	44 8d 60 ff          	lea    -0x1(%rax),%r12d
  4025d7:	85 c0                	test   %eax,%eax
  4025d9:	0f 84 a8 00 00 00    	je     402687 <urlencode+0xf5>
  4025df:	44 0f b6 03          	movzbl (%rbx),%r8d
  4025e3:	41 80 f8 2a          	cmp    $0x2a,%r8b
  4025e7:	0f 94 c2             	sete   %dl
  4025ea:	41 80 f8 2d          	cmp    $0x2d,%r8b
  4025ee:	0f 94 c0             	sete   %al
  4025f1:	08 c2                	or     %al,%dl
  4025f3:	75 cf                	jne    4025c4 <urlencode+0x32>
  4025f5:	41 80 f8 2e          	cmp    $0x2e,%r8b
  4025f9:	74 c9                	je     4025c4 <urlencode+0x32>
  4025fb:	41 80 f8 5f          	cmp    $0x5f,%r8b
  4025ff:	74 c3                	je     4025c4 <urlencode+0x32>
  402601:	41 8d 40 d0          	lea    -0x30(%r8),%eax
  402605:	3c 09                	cmp    $0x9,%al
  402607:	76 bb                	jbe    4025c4 <urlencode+0x32>
  402609:	41 8d 40 bf          	lea    -0x41(%r8),%eax
  40260d:	3c 19                	cmp    $0x19,%al
  40260f:	76 b3                	jbe    4025c4 <urlencode+0x32>
  402611:	41 8d 40 9f          	lea    -0x61(%r8),%eax
  402615:	3c 19                	cmp    $0x19,%al
  402617:	76 ab                	jbe    4025c4 <urlencode+0x32>
  402619:	41 80 f8 20          	cmp    $0x20,%r8b
  40261d:	74 56                	je     402675 <urlencode+0xe3>
  40261f:	41 8d 40 e0          	lea    -0x20(%r8),%eax
  402623:	3c 5f                	cmp    $0x5f,%al
  402625:	0f 96 c2             	setbe  %dl
  402628:	41 80 f8 09          	cmp    $0x9,%r8b
  40262c:	0f 94 c0             	sete   %al
  40262f:	08 c2                	or     %al,%dl
  402631:	74 4f                	je     402682 <urlencode+0xf0>
  402633:	48 89 e7             	mov    %rsp,%rdi
  402636:	45 0f b6 c0          	movzbl %r8b,%r8d
  40263a:	48 8d 0d d7 13 00 00 	lea    0x13d7(%rip),%rcx        # 403a18 <trans_char+0xc8>
  402641:	ba 08 00 00 00       	mov    $0x8,%edx
  402646:	be 01 00 00 00       	mov    $0x1,%esi
  40264b:	b8 00 00 00 00       	mov    $0x0,%eax
  402650:	e8 8b e8 ff ff       	callq  400ee0 <__sprintf_chk@plt>
  402655:	0f b6 04 24          	movzbl (%rsp),%eax
  402659:	88 45 00             	mov    %al,0x0(%rbp)
  40265c:	0f b6 44 24 01       	movzbl 0x1(%rsp),%eax
  402661:	88 45 01             	mov    %al,0x1(%rbp)
  402664:	0f b6 44 24 02       	movzbl 0x2(%rsp),%eax
  402669:	88 45 02             	mov    %al,0x2(%rbp)
  40266c:	48 8d 6d 03          	lea    0x3(%rbp),%rbp
  402670:	e9 57 ff ff ff       	jmpq   4025cc <urlencode+0x3a>
  402675:	c6 45 00 2b          	movb   $0x2b,0x0(%rbp)
  402679:	48 8d 6d 01          	lea    0x1(%rbp),%rbp
  40267d:	e9 4a ff ff ff       	jmpq   4025cc <urlencode+0x3a>
  402682:	b8 ff ff ff ff       	mov    $0xffffffff,%eax
  402687:	48 8b 74 24 08       	mov    0x8(%rsp),%rsi
  40268c:	64 48 33 34 25 28 00 	xor    %fs:0x28,%rsi
  402693:	00 00 
  402695:	75 09                	jne    4026a0 <urlencode+0x10e>
  402697:	48 83 c4 10          	add    $0x10,%rsp
  40269b:	5b                   	pop    %rbx
  40269c:	5d                   	pop    %rbp
  40269d:	41 5c                	pop    %r12
  40269f:	c3                   	retq   
  4026a0:	e8 3c fb ff ff       	callq  4021e1 <__stack_chk_fail>

00000000004026a5 <submitr>:
  4026a5:	41 57                	push   %r15
  4026a7:	41 56                	push   %r14
  4026a9:	41 55                	push   %r13
  4026ab:	41 54                	push   %r12
  4026ad:	55                   	push   %rbp
  4026ae:	53                   	push   %rbx
  4026af:	48 81 ec 68 a0 00 00 	sub    $0xa068,%rsp
  4026b6:	49 89 fd             	mov    %rdi,%r13
  4026b9:	89 74 24 1c          	mov    %esi,0x1c(%rsp)
  4026bd:	48 89 54 24 08       	mov    %rdx,0x8(%rsp)
  4026c2:	49 89 ce             	mov    %rcx,%r14
  4026c5:	4c 89 44 24 10       	mov    %r8,0x10(%rsp)
  4026ca:	4d 89 cf             	mov    %r9,%r15
  4026cd:	48 8b ac 24 a0 a0 00 	mov    0xa0a0(%rsp),%rbp
  4026d4:	00 
  4026d5:	64 48 8b 04 25 28 00 	mov    %fs:0x28,%rax
  4026dc:	00 00 
  4026de:	48 89 84 24 58 a0 00 	mov    %rax,0xa058(%rsp)
  4026e5:	00 
  4026e6:	31 c0                	xor    %eax,%eax
  4026e8:	c7 44 24 2c 00 00 00 	movl   $0x0,0x2c(%rsp)
  4026ef:	00 
  4026f0:	ba 00 00 00 00       	mov    $0x0,%edx
  4026f5:	be 01 00 00 00       	mov    $0x1,%esi
  4026fa:	bf 02 00 00 00       	mov    $0x2,%edi
  4026ff:	e8 ec e7 ff ff       	callq  400ef0 <socket@plt>
  402704:	85 c0                	test   %eax,%eax
  402706:	0f 88 ae 02 00 00    	js     4029ba <submitr+0x315>
  40270c:	89 c3                	mov    %eax,%ebx
  40270e:	4c 89 ef             	mov    %r13,%rdi
  402711:	e8 ba e6 ff ff       	callq  400dd0 <gethostbyname@plt>
  402716:	48 85 c0             	test   %rax,%rax
  402719:	0f 84 e7 02 00 00    	je     402a06 <submitr+0x361>
  40271f:	4c 8d 64 24 30       	lea    0x30(%rsp),%r12
  402724:	48 c7 44 24 32 00 00 	movq   $0x0,0x32(%rsp)
  40272b:	00 00 
  40272d:	c7 44 24 3a 00 00 00 	movl   $0x0,0x3a(%rsp)
  402734:	00 
  402735:	66 c7 44 24 3e 00 00 	movw   $0x0,0x3e(%rsp)
  40273c:	66 c7 44 24 30 02 00 	movw   $0x2,0x30(%rsp)
  402743:	48 63 50 14          	movslq 0x14(%rax),%rdx
  402747:	48 8b 40 18          	mov    0x18(%rax),%rax
  40274b:	48 8b 30             	mov    (%rax),%rsi
  40274e:	48 8d 7c 24 34       	lea    0x34(%rsp),%rdi
  402753:	b9 0c 00 00 00       	mov    $0xc,%ecx
  402758:	e8 83 e6 ff ff       	callq  400de0 <__memmove_chk@plt>
  40275d:	0f b7 44 24 1c       	movzwl 0x1c(%rsp),%eax
  402762:	66 c1 c8 08          	ror    $0x8,%ax
  402766:	66 89 44 24 32       	mov    %ax,0x32(%rsp)
  40276b:	ba 10 00 00 00       	mov    $0x10,%edx
  402770:	4c 89 e6             	mov    %r12,%rsi
  402773:	89 df                	mov    %ebx,%edi
  402775:	e8 46 e7 ff ff       	callq  400ec0 <connect@plt>
  40277a:	85 c0                	test   %eax,%eax
  40277c:	0f 88 fa 02 00 00    	js     402a7c <submitr+0x3d7>
  402782:	48 c7 c6 ff ff ff ff 	mov    $0xffffffffffffffff,%rsi
  402789:	b8 00 00 00 00       	mov    $0x0,%eax
  40278e:	48 89 f1             	mov    %rsi,%rcx
  402791:	4c 89 ff             	mov    %r15,%rdi
  402794:	f2 ae                	repnz scas %es:(%rdi),%al
  402796:	48 89 ca             	mov    %rcx,%rdx
  402799:	48 f7 d2             	not    %rdx
  40279c:	48 89 f1             	mov    %rsi,%rcx
  40279f:	48 8b 7c 24 08       	mov    0x8(%rsp),%rdi
  4027a4:	f2 ae                	repnz scas %es:(%rdi),%al
  4027a6:	48 f7 d1             	not    %rcx
  4027a9:	49 89 c8             	mov    %rcx,%r8
  4027ac:	48 89 f1             	mov    %rsi,%rcx
  4027af:	4c 89 f7             	mov    %r14,%rdi
  4027b2:	f2 ae                	repnz scas %es:(%rdi),%al
  4027b4:	48 f7 d1             	not    %rcx
  4027b7:	4d 8d 44 08 fe       	lea    -0x2(%r8,%rcx,1),%r8
  4027bc:	48 89 f1             	mov    %rsi,%rcx
  4027bf:	48 8b 7c 24 10       	mov    0x10(%rsp),%rdi
  4027c4:	f2 ae                	repnz scas %es:(%rdi),%al
  4027c6:	48 89 c8             	mov    %rcx,%rax
  4027c9:	48 f7 d0             	not    %rax
  4027cc:	49 8d 4c 00 ff       	lea    -0x1(%r8,%rax,1),%rcx
  4027d1:	48 8d 44 52 fd       	lea    -0x3(%rdx,%rdx,2),%rax
  4027d6:	48 8d 84 01 80 00 00 	lea    0x80(%rcx,%rax,1),%rax
  4027dd:	00 
  4027de:	48 3d 00 20 00 00    	cmp    $0x2000,%rax
  4027e4:	0f 87 fa 02 00 00    	ja     402ae4 <submitr+0x43f>
  4027ea:	48 8d b4 24 50 40 00 	lea    0x4050(%rsp),%rsi
  4027f1:	00 
  4027f2:	b9 00 04 00 00       	mov    $0x400,%ecx
  4027f7:	b8 00 00 00 00       	mov    $0x0,%eax
  4027fc:	48 89 f7             	mov    %rsi,%rdi
  4027ff:	f3 48 ab             	rep stos %rax,%es:(%rdi)
  402802:	4c 89 ff             	mov    %r15,%rdi
  402805:	e8 88 fd ff ff       	callq  402592 <urlencode>
  40280a:	85 c0                	test   %eax,%eax
  40280c:	0f 88 45 03 00 00    	js     402b57 <submitr+0x4b2>
  402812:	4c 8d a4 24 50 20 00 	lea    0x2050(%rsp),%r12
  402819:	00 
  40281a:	48 83 ec 08          	sub    $0x8,%rsp
  40281e:	41 55                	push   %r13
  402820:	48 8d 84 24 60 40 00 	lea    0x4060(%rsp),%rax
  402827:	00 
  402828:	50                   	push   %rax
  402829:	41 56                	push   %r14
  40282b:	4c 8b 4c 24 30       	mov    0x30(%rsp),%r9
  402830:	4c 8b 44 24 28       	mov    0x28(%rsp),%r8
  402835:	48 8d 0d 4c 11 00 00 	lea    0x114c(%rip),%rcx        # 403988 <trans_char+0x38>
  40283c:	ba 00 20 00 00       	mov    $0x2000,%edx
  402841:	be 01 00 00 00       	mov    $0x1,%esi
  402846:	4c 89 e7             	mov    %r12,%rdi
  402849:	b8 00 00 00 00       	mov    $0x0,%eax
  40284e:	e8 8d e6 ff ff       	callq  400ee0 <__sprintf_chk@plt>
  402853:	48 c7 c1 ff ff ff ff 	mov    $0xffffffffffffffff,%rcx
  40285a:	b8 00 00 00 00       	mov    $0x0,%eax
  40285f:	4c 89 e7             	mov    %r12,%rdi
  402862:	f2 ae                	repnz scas %es:(%rdi),%al
  402864:	48 89 ca             	mov    %rcx,%rdx
  402867:	48 f7 d2             	not    %rdx
  40286a:	48 8d 52 ff          	lea    -0x1(%rdx),%rdx
  40286e:	48 83 c4 20          	add    $0x20,%rsp
  402872:	4c 89 e6             	mov    %r12,%rsi
  402875:	89 df                	mov    %ebx,%edi
  402877:	e8 89 fb ff ff       	callq  402405 <rio_writen>
  40287c:	48 85 c0             	test   %rax,%rax
  40287f:	0f 88 5d 03 00 00    	js     402be2 <submitr+0x53d>
  402885:	4c 8d 64 24 40       	lea    0x40(%rsp),%r12
  40288a:	89 de                	mov    %ebx,%esi
  40288c:	4c 89 e7             	mov    %r12,%rdi
  40288f:	e8 2f fb ff ff       	callq  4023c3 <rio_readinitb>
  402894:	48 8d b4 24 50 20 00 	lea    0x2050(%rsp),%rsi
  40289b:	00 
  40289c:	ba 00 20 00 00       	mov    $0x2000,%edx
  4028a1:	4c 89 e7             	mov    %r12,%rdi
  4028a4:	e8 45 fc ff ff       	callq  4024ee <rio_readlineb>
  4028a9:	48 85 c0             	test   %rax,%rax
  4028ac:	0f 8e 9c 03 00 00    	jle    402c4e <submitr+0x5a9>
  4028b2:	48 8d 4c 24 2c       	lea    0x2c(%rsp),%rcx
  4028b7:	48 8d 94 24 50 60 00 	lea    0x6050(%rsp),%rdx
  4028be:	00 
  4028bf:	48 8d bc 24 50 20 00 	lea    0x2050(%rsp),%rdi
  4028c6:	00 
  4028c7:	4c 8d 84 24 50 80 00 	lea    0x8050(%rsp),%r8
  4028ce:	00 
  4028cf:	48 8d 35 49 11 00 00 	lea    0x1149(%rip),%rsi        # 403a1f <trans_char+0xcf>
  4028d6:	b8 00 00 00 00       	mov    $0x0,%eax
  4028db:	e8 60 e5 ff ff       	callq  400e40 <__isoc99_sscanf@plt>
  4028e0:	48 8d b4 24 50 20 00 	lea    0x2050(%rsp),%rsi
  4028e7:	00 
  4028e8:	b9 03 00 00 00       	mov    $0x3,%ecx
  4028ed:	48 8d 3d 42 11 00 00 	lea    0x1142(%rip),%rdi        # 403a36 <trans_char+0xe6>
  4028f4:	f3 a6                	repz cmpsb %es:(%rdi),%ds:(%rsi)
  4028f6:	0f 97 c0             	seta   %al
  4028f9:	1c 00                	sbb    $0x0,%al
  4028fb:	84 c0                	test   %al,%al
  4028fd:	0f 84 cb 03 00 00    	je     402cce <submitr+0x629>
  402903:	48 8d b4 24 50 20 00 	lea    0x2050(%rsp),%rsi
  40290a:	00 
  40290b:	48 8d 7c 24 40       	lea    0x40(%rsp),%rdi
  402910:	ba 00 20 00 00       	mov    $0x2000,%edx
  402915:	e8 d4 fb ff ff       	callq  4024ee <rio_readlineb>
  40291a:	48 85 c0             	test   %rax,%rax
  40291d:	7f c1                	jg     4028e0 <submitr+0x23b>
  40291f:	48 b8 45 72 72 6f 72 	movabs $0x43203a726f727245,%rax
  402926:	3a 20 43 
  402929:	48 ba 6c 69 65 6e 74 	movabs $0x6e7520746e65696c,%rdx
  402930:	20 75 6e 
  402933:	48 89 45 00          	mov    %rax,0x0(%rbp)
  402937:	48 89 55 08          	mov    %rdx,0x8(%rbp)
  40293b:	48 b8 61 62 6c 65 20 	movabs $0x206f7420656c6261,%rax
  402942:	74 6f 20 
  402945:	48 ba 72 65 61 64 20 	movabs $0x6165682064616572,%rdx
  40294c:	68 65 61 
  40294f:	48 89 45 10          	mov    %rax,0x10(%rbp)
  402953:	48 89 55 18          	mov    %rdx,0x18(%rbp)
  402957:	48 b8 64 65 72 73 20 	movabs $0x6f72662073726564,%rax
  40295e:	66 72 6f 
  402961:	48 ba 6d 20 41 75 74 	movabs $0x616c6f747541206d,%rdx
  402968:	6f 6c 61 
  40296b:	48 89 45 20          	mov    %rax,0x20(%rbp)
  40296f:	48 89 55 28          	mov    %rdx,0x28(%rbp)
  402973:	48 b8 62 20 73 65 72 	movabs $0x7265767265732062,%rax
  40297a:	76 65 72 
  40297d:	48 89 45 30          	mov    %rax,0x30(%rbp)
  402981:	c6 45 38 00          	movb   $0x0,0x38(%rbp)
  402985:	89 df                	mov    %ebx,%edi
  402987:	e8 04 e4 ff ff       	callq  400d90 <close@plt>
  40298c:	b8 ff ff ff ff       	mov    $0xffffffff,%eax
  402991:	48 8b 9c 24 58 a0 00 	mov    0xa058(%rsp),%rbx
  402998:	00 
  402999:	64 48 33 1c 25 28 00 	xor    %fs:0x28,%rbx
  4029a0:	00 00 
  4029a2:	0f 85 96 04 00 00    	jne    402e3e <submitr+0x799>
  4029a8:	48 81 c4 68 a0 00 00 	add    $0xa068,%rsp
  4029af:	5b                   	pop    %rbx
  4029b0:	5d                   	pop    %rbp
  4029b1:	41 5c                	pop    %r12
  4029b3:	41 5d                	pop    %r13
  4029b5:	41 5e                	pop    %r14
  4029b7:	41 5f                	pop    %r15
  4029b9:	c3                   	retq   
  4029ba:	48 b8 45 72 72 6f 72 	movabs $0x43203a726f727245,%rax
  4029c1:	3a 20 43 
  4029c4:	48 ba 6c 69 65 6e 74 	movabs $0x6e7520746e65696c,%rdx
  4029cb:	20 75 6e 
  4029ce:	48 89 45 00          	mov    %rax,0x0(%rbp)
  4029d2:	48 89 55 08          	mov    %rdx,0x8(%rbp)
  4029d6:	48 b8 61 62 6c 65 20 	movabs $0x206f7420656c6261,%rax
  4029dd:	74 6f 20 
  4029e0:	48 ba 63 72 65 61 74 	movabs $0x7320657461657263,%rdx
  4029e7:	65 20 73 
  4029ea:	48 89 45 10          	mov    %rax,0x10(%rbp)
  4029ee:	48 89 55 18          	mov    %rdx,0x18(%rbp)
  4029f2:	c7 45 20 6f 63 6b 65 	movl   $0x656b636f,0x20(%rbp)
  4029f9:	66 c7 45 24 74 00    	movw   $0x74,0x24(%rbp)
  4029ff:	b8 ff ff ff ff       	mov    $0xffffffff,%eax
  402a04:	eb 8b                	jmp    402991 <submitr+0x2ec>
  402a06:	48 b8 45 72 72 6f 72 	movabs $0x44203a726f727245,%rax
  402a0d:	3a 20 44 
  402a10:	48 ba 4e 53 20 69 73 	movabs $0x6e7520736920534e,%rdx
  402a17:	20 75 6e 
  402a1a:	48 89 45 00          	mov    %rax,0x0(%rbp)
  402a1e:	48 89 55 08          	mov    %rdx,0x8(%rbp)
  402a22:	48 b8 61 62 6c 65 20 	movabs $0x206f7420656c6261,%rax
  402a29:	74 6f 20 
  402a2c:	48 ba 72 65 73 6f 6c 	movabs $0x2065766c6f736572,%rdx
  402a33:	76 65 20 
  402a36:	48 89 45 10          	mov    %rax,0x10(%rbp)
  402a3a:	48 89 55 18          	mov    %rdx,0x18(%rbp)
  402a3e:	48 b8 41 75 74 6f 6c 	movabs $0x2062616c6f747541,%rax
  402a45:	61 62 20 
  402a48:	48 ba 73 65 72 76 65 	movabs $0x6120726576726573,%rdx
  402a4f:	72 20 61 
  402a52:	48 89 45 20          	mov    %rax,0x20(%rbp)
  402a56:	48 89 55 28          	mov    %rdx,0x28(%rbp)
  402a5a:	c7 45 30 64 64 72 65 	movl   $0x65726464,0x30(%rbp)
  402a61:	66 c7 45 34 73 73    	movw   $0x7373,0x34(%rbp)
  402a67:	c6 45 36 00          	movb   $0x0,0x36(%rbp)
  402a6b:	89 df                	mov    %ebx,%edi
  402a6d:	e8 1e e3 ff ff       	callq  400d90 <close@plt>
  402a72:	b8 ff ff ff ff       	mov    $0xffffffff,%eax
  402a77:	e9 15 ff ff ff       	jmpq   402991 <submitr+0x2ec>
  402a7c:	48 b8 45 72 72 6f 72 	movabs $0x55203a726f727245,%rax
  402a83:	3a 20 55 
  402a86:	48 ba 6e 61 62 6c 65 	movabs $0x6f7420656c62616e,%rdx
  402a8d:	20 74 6f 
  402a90:	48 89 45 00          	mov    %rax,0x0(%rbp)
  402a94:	48 89 55 08          	mov    %rdx,0x8(%rbp)
  402a98:	48 b8 20 63 6f 6e 6e 	movabs $0x7463656e6e6f6320,%rax
  402a9f:	65 63 74 
  402aa2:	48 ba 20 74 6f 20 74 	movabs $0x20656874206f7420,%rdx
  402aa9:	68 65 20 
  402aac:	48 89 45 10          	mov    %rax,0x10(%rbp)
  402ab0:	48 89 55 18          	mov    %rdx,0x18(%rbp)
  402ab4:	48 b8 41 75 74 6f 6c 	movabs $0x2062616c6f747541,%rax
  402abb:	61 62 20 
  402abe:	48 89 45 20          	mov    %rax,0x20(%rbp)
  402ac2:	c7 45 28 73 65 72 76 	movl   $0x76726573,0x28(%rbp)
  402ac9:	66 c7 45 2c 65 72    	movw   $0x7265,0x2c(%rbp)
  402acf:	c6 45 2e 00          	movb   $0x0,0x2e(%rbp)
  402ad3:	89 df                	mov    %ebx,%edi
  402ad5:	e8 b6 e2 ff ff       	callq  400d90 <close@plt>
  402ada:	b8 ff ff ff ff       	mov    $0xffffffff,%eax
  402adf:	e9 ad fe ff ff       	jmpq   402991 <submitr+0x2ec>
  402ae4:	48 b8 45 72 72 6f 72 	movabs $0x52203a726f727245,%rax
  402aeb:	3a 20 52 
  402aee:	48 ba 65 73 75 6c 74 	movabs $0x747320746c757365,%rdx
  402af5:	20 73 74 
  402af8:	48 89 45 00          	mov    %rax,0x0(%rbp)
  402afc:	48 89 55 08          	mov    %rdx,0x8(%rbp)
  402b00:	48 b8 72 69 6e 67 20 	movabs $0x6f6f7420676e6972,%rax
  402b07:	74 6f 6f 
  402b0a:	48 ba 20 6c 61 72 67 	movabs $0x202e656772616c20,%rdx
  402b11:	65 2e 20 
  402b14:	48 89 45 10          	mov    %rax,0x10(%rbp)
  402b18:	48 89 55 18          	mov    %rdx,0x18(%rbp)
  402b1c:	48 b8 49 6e 63 72 65 	movabs $0x6573616572636e49,%rax
  402b23:	61 73 65 
  402b26:	48 ba 20 53 55 42 4d 	movabs $0x5254494d42555320,%rdx
  402b2d:	49 54 52 
  402b30:	48 89 45 20          	mov    %rax,0x20(%rbp)
  402b34:	48 89 55 28          	mov    %rdx,0x28(%rbp)
  402b38:	48 b8 5f 4d 41 58 42 	movabs $0x46554258414d5f,%rax
  402b3f:	55 46 00 
  402b42:	48 89 45 30          	mov    %rax,0x30(%rbp)
  402b46:	89 df                	mov    %ebx,%edi
  402b48:	e8 43 e2 ff ff       	callq  400d90 <close@plt>
  402b4d:	b8 ff ff ff ff       	mov    $0xffffffff,%eax
  402b52:	e9 3a fe ff ff       	jmpq   402991 <submitr+0x2ec>
  402b57:	48 b8 45 72 72 6f 72 	movabs $0x52203a726f727245,%rax
  402b5e:	3a 20 52 
  402b61:	48 ba 65 73 75 6c 74 	movabs $0x747320746c757365,%rdx
  402b68:	20 73 74 
  402b6b:	48 89 45 00          	mov    %rax,0x0(%rbp)
  402b6f:	48 89 55 08          	mov    %rdx,0x8(%rbp)
  402b73:	48 b8 72 69 6e 67 20 	movabs $0x6e6f6320676e6972,%rax
  402b7a:	63 6f 6e 
  402b7d:	48 ba 74 61 69 6e 73 	movabs $0x6e6120736e696174,%rdx
  402b84:	20 61 6e 
  402b87:	48 89 45 10          	mov    %rax,0x10(%rbp)
  402b8b:	48 89 55 18          	mov    %rdx,0x18(%rbp)
  402b8f:	48 b8 20 69 6c 6c 65 	movabs $0x6c6167656c6c6920,%rax
  402b96:	67 61 6c 
  402b99:	48 ba 20 6f 72 20 75 	movabs $0x72706e7520726f20,%rdx
  402ba0:	6e 70 72 
  402ba3:	48 89 45 20          	mov    %rax,0x20(%rbp)
  402ba7:	48 89 55 28          	mov    %rdx,0x28(%rbp)
  402bab:	48 b8 69 6e 74 61 62 	movabs $0x20656c6261746e69,%rax
  402bb2:	6c 65 20 
  402bb5:	48 ba 63 68 61 72 61 	movabs $0x6574636172616863,%rdx
  402bbc:	63 74 65 
  402bbf:	48 89 45 30          	mov    %rax,0x30(%rbp)
  402bc3:	48 89 55 38          	mov    %rdx,0x38(%rbp)
  402bc7:	66 c7 45 40 72 2e    	movw   $0x2e72,0x40(%rbp)
  402bcd:	c6 45 42 00          	movb   $0x0,0x42(%rbp)
  402bd1:	89 df                	mov    %ebx,%edi
  402bd3:	e8 b8 e1 ff ff       	callq  400d90 <close@plt>
  402bd8:	b8 ff ff ff ff       	mov    $0xffffffff,%eax
  402bdd:	e9 af fd ff ff       	jmpq   402991 <submitr+0x2ec>
  402be2:	48 b8 45 72 72 6f 72 	movabs $0x43203a726f727245,%rax
  402be9:	3a 20 43 
  402bec:	48 ba 6c 69 65 6e 74 	movabs $0x6e7520746e65696c,%rdx
  402bf3:	20 75 6e 
  402bf6:	48 89 45 00          	mov    %rax,0x0(%rbp)
  402bfa:	48 89 55 08          	mov    %rdx,0x8(%rbp)
  402bfe:	48 b8 61 62 6c 65 20 	movabs $0x206f7420656c6261,%rax
  402c05:	74 6f 20 
  402c08:	48 ba 77 72 69 74 65 	movabs $0x6f74206574697277,%rdx
  402c0f:	20 74 6f 
  402c12:	48 89 45 10          	mov    %rax,0x10(%rbp)
  402c16:	48 89 55 18          	mov    %rdx,0x18(%rbp)
  402c1a:	48 b8 20 74 68 65 20 	movabs $0x7475412065687420,%rax
  402c21:	41 75 74 
  402c24:	48 ba 6f 6c 61 62 20 	movabs $0x7265732062616c6f,%rdx
  402c2b:	73 65 72 
  402c2e:	48 89 45 20          	mov    %rax,0x20(%rbp)
  402c32:	48 89 55 28          	mov    %rdx,0x28(%rbp)
  402c36:	c7 45 30 76 65 72 00 	movl   $0x726576,0x30(%rbp)
  402c3d:	89 df                	mov    %ebx,%edi
  402c3f:	e8 4c e1 ff ff       	callq  400d90 <close@plt>
  402c44:	b8 ff ff ff ff       	mov    $0xffffffff,%eax
  402c49:	e9 43 fd ff ff       	jmpq   402991 <submitr+0x2ec>
  402c4e:	48 b8 45 72 72 6f 72 	movabs $0x43203a726f727245,%rax
  402c55:	3a 20 43 
  402c58:	48 ba 6c 69 65 6e 74 	movabs $0x6e7520746e65696c,%rdx
  402c5f:	20 75 6e 
  402c62:	48 89 45 00          	mov    %rax,0x0(%rbp)
  402c66:	48 89 55 08          	mov    %rdx,0x8(%rbp)
  402c6a:	48 b8 61 62 6c 65 20 	movabs $0x206f7420656c6261,%rax
  402c71:	74 6f 20 
  402c74:	48 ba 72 65 61 64 20 	movabs $0x7269662064616572,%rdx
  402c7b:	66 69 72 
  402c7e:	48 89 45 10          	mov    %rax,0x10(%rbp)
  402c82:	48 89 55 18          	mov    %rdx,0x18(%rbp)
  402c86:	48 b8 73 74 20 68 65 	movabs $0x6564616568207473,%rax
  402c8d:	61 64 65 
  402c90:	48 ba 72 20 66 72 6f 	movabs $0x41206d6f72662072,%rdx
  402c97:	6d 20 41 
  402c9a:	48 89 45 20          	mov    %rax,0x20(%rbp)
  402c9e:	48 89 55 28          	mov    %rdx,0x28(%rbp)
  402ca2:	48 b8 75 74 6f 6c 61 	movabs $0x732062616c6f7475,%rax
  402ca9:	62 20 73 
  402cac:	48 89 45 30          	mov    %rax,0x30(%rbp)
  402cb0:	c7 45 38 65 72 76 65 	movl   $0x65767265,0x38(%rbp)
  402cb7:	66 c7 45 3c 72 00    	movw   $0x72,0x3c(%rbp)
  402cbd:	89 df                	mov    %ebx,%edi
  402cbf:	e8 cc e0 ff ff       	callq  400d90 <close@plt>
  402cc4:	b8 ff ff ff ff       	mov    $0xffffffff,%eax
  402cc9:	e9 c3 fc ff ff       	jmpq   402991 <submitr+0x2ec>
  402cce:	48 8d b4 24 50 20 00 	lea    0x2050(%rsp),%rsi
  402cd5:	00 
  402cd6:	48 8d 7c 24 40       	lea    0x40(%rsp),%rdi
  402cdb:	ba 00 20 00 00       	mov    $0x2000,%edx
  402ce0:	e8 09 f8 ff ff       	callq  4024ee <rio_readlineb>
  402ce5:	48 85 c0             	test   %rax,%rax
  402ce8:	0f 8e 96 00 00 00    	jle    402d84 <submitr+0x6df>
  402cee:	44 8b 44 24 2c       	mov    0x2c(%rsp),%r8d
  402cf3:	41 81 f8 c8 00 00 00 	cmp    $0xc8,%r8d
  402cfa:	0f 85 05 01 00 00    	jne    402e05 <submitr+0x760>
  402d00:	48 8d b4 24 50 20 00 	lea    0x2050(%rsp),%rsi
  402d07:	00 
  402d08:	48 89 ef             	mov    %rbp,%rdi
  402d0b:	e8 20 e0 ff ff       	callq  400d30 <strcpy@plt>
  402d10:	89 df                	mov    %ebx,%edi
  402d12:	e8 79 e0 ff ff       	callq  400d90 <close@plt>
  402d17:	b9 04 00 00 00       	mov    $0x4,%ecx
  402d1c:	48 8d 3d 0d 0d 00 00 	lea    0xd0d(%rip),%rdi        # 403a30 <trans_char+0xe0>
  402d23:	48 89 ee             	mov    %rbp,%rsi
  402d26:	f3 a6                	repz cmpsb %es:(%rdi),%ds:(%rsi)
  402d28:	0f 97 c0             	seta   %al
  402d2b:	1c 00                	sbb    $0x0,%al
  402d2d:	0f be c0             	movsbl %al,%eax
  402d30:	85 c0                	test   %eax,%eax
  402d32:	0f 84 59 fc ff ff    	je     402991 <submitr+0x2ec>
  402d38:	b9 05 00 00 00       	mov    $0x5,%ecx
  402d3d:	48 8d 3d f0 0c 00 00 	lea    0xcf0(%rip),%rdi        # 403a34 <trans_char+0xe4>
  402d44:	48 89 ee             	mov    %rbp,%rsi
  402d47:	f3 a6                	repz cmpsb %es:(%rdi),%ds:(%rsi)
  402d49:	0f 97 c0             	seta   %al
  402d4c:	1c 00                	sbb    $0x0,%al
  402d4e:	0f be c0             	movsbl %al,%eax
  402d51:	85 c0                	test   %eax,%eax
  402d53:	0f 84 38 fc ff ff    	je     402991 <submitr+0x2ec>
  402d59:	b9 03 00 00 00       	mov    $0x3,%ecx
  402d5e:	48 8d 3d d4 0c 00 00 	lea    0xcd4(%rip),%rdi        # 403a39 <trans_char+0xe9>
  402d65:	48 89 ee             	mov    %rbp,%rsi
  402d68:	f3 a6                	repz cmpsb %es:(%rdi),%ds:(%rsi)
  402d6a:	0f 97 c0             	seta   %al
  402d6d:	1c 00                	sbb    $0x0,%al
  402d6f:	0f be c0             	movsbl %al,%eax
  402d72:	85 c0                	test   %eax,%eax
  402d74:	0f 84 17 fc ff ff    	je     402991 <submitr+0x2ec>
  402d7a:	b8 ff ff ff ff       	mov    $0xffffffff,%eax
  402d7f:	e9 0d fc ff ff       	jmpq   402991 <submitr+0x2ec>
  402d84:	48 b8 45 72 72 6f 72 	movabs $0x43203a726f727245,%rax
  402d8b:	3a 20 43 
  402d8e:	48 ba 6c 69 65 6e 74 	movabs $0x6e7520746e65696c,%rdx
  402d95:	20 75 6e 
  402d98:	48 89 45 00          	mov    %rax,0x0(%rbp)
  402d9c:	48 89 55 08          	mov    %rdx,0x8(%rbp)
  402da0:	48 b8 61 62 6c 65 20 	movabs $0x206f7420656c6261,%rax
  402da7:	74 6f 20 
  402daa:	48 ba 72 65 61 64 20 	movabs $0x6174732064616572,%rdx
  402db1:	73 74 61 
  402db4:	48 89 45 10          	mov    %rax,0x10(%rbp)
  402db8:	48 89 55 18          	mov    %rdx,0x18(%rbp)
  402dbc:	48 b8 74 75 73 20 6d 	movabs $0x7373656d20737574,%rax
  402dc3:	65 73 73 
  402dc6:	48 ba 61 67 65 20 66 	movabs $0x6d6f726620656761,%rdx
  402dcd:	72 6f 6d 
  402dd0:	48 89 45 20          	mov    %rax,0x20(%rbp)
  402dd4:	48 89 55 28          	mov    %rdx,0x28(%rbp)
  402dd8:	48 b8 20 41 75 74 6f 	movabs $0x62616c6f74754120,%rax
  402ddf:	6c 61 62 
  402de2:	48 ba 20 73 65 72 76 	movabs $0x72657672657320,%rdx
  402de9:	65 72 00 
  402dec:	48 89 45 30          	mov    %rax,0x30(%rbp)
  402df0:	48 89 55 38          	mov    %rdx,0x38(%rbp)
  402df4:	89 df                	mov    %ebx,%edi
  402df6:	e8 95 df ff ff       	callq  400d90 <close@plt>
  402dfb:	b8 ff ff ff ff       	mov    $0xffffffff,%eax
  402e00:	e9 8c fb ff ff       	jmpq   402991 <submitr+0x2ec>
  402e05:	4c 8d 8c 24 50 80 00 	lea    0x8050(%rsp),%r9
  402e0c:	00 
  402e0d:	48 8d 0d d4 0b 00 00 	lea    0xbd4(%rip),%rcx        # 4039e8 <trans_char+0x98>
  402e14:	48 c7 c2 ff ff ff ff 	mov    $0xffffffffffffffff,%rdx
  402e1b:	be 01 00 00 00       	mov    $0x1,%esi
  402e20:	48 89 ef             	mov    %rbp,%rdi
  402e23:	b8 00 00 00 00       	mov    $0x0,%eax
  402e28:	e8 b3 e0 ff ff       	callq  400ee0 <__sprintf_chk@plt>
  402e2d:	89 df                	mov    %ebx,%edi
  402e2f:	e8 5c df ff ff       	callq  400d90 <close@plt>
  402e34:	b8 ff ff ff ff       	mov    $0xffffffff,%eax
  402e39:	e9 53 fb ff ff       	jmpq   402991 <submitr+0x2ec>
  402e3e:	e8 9e f3 ff ff       	callq  4021e1 <__stack_chk_fail>

0000000000402e43 <init_timeout>:
  402e43:	85 ff                	test   %edi,%edi
  402e45:	74 28                	je     402e6f <init_timeout+0x2c>
  402e47:	53                   	push   %rbx
  402e48:	89 fb                	mov    %edi,%ebx
  402e4a:	85 ff                	test   %edi,%edi
  402e4c:	78 1a                	js     402e68 <init_timeout+0x25>
  402e4e:	48 8d 35 80 f5 ff ff 	lea    -0xa80(%rip),%rsi        # 4023d5 <sigalrm_handler>
  402e55:	bf 0e 00 00 00       	mov    $0xe,%edi
  402e5a:	e8 61 df ff ff       	callq  400dc0 <signal@plt>
  402e5f:	89 df                	mov    %ebx,%edi
  402e61:	e8 1a df ff ff       	callq  400d80 <alarm@plt>
  402e66:	5b                   	pop    %rbx
  402e67:	c3                   	retq   
  402e68:	bb 00 00 00 00       	mov    $0x0,%ebx
  402e6d:	eb df                	jmp    402e4e <init_timeout+0xb>
  402e6f:	f3 c3                	repz retq 

0000000000402e71 <init_driver>:
  402e71:	41 54                	push   %r12
  402e73:	55                   	push   %rbp
  402e74:	53                   	push   %rbx
  402e75:	48 83 ec 20          	sub    $0x20,%rsp
  402e79:	49 89 fc             	mov    %rdi,%r12
  402e7c:	64 48 8b 04 25 28 00 	mov    %fs:0x28,%rax
  402e83:	00 00 
  402e85:	48 89 44 24 18       	mov    %rax,0x18(%rsp)
  402e8a:	31 c0                	xor    %eax,%eax
  402e8c:	be 01 00 00 00       	mov    $0x1,%esi
  402e91:	bf 0d 00 00 00       	mov    $0xd,%edi
  402e96:	e8 25 df ff ff       	callq  400dc0 <signal@plt>
  402e9b:	be 01 00 00 00       	mov    $0x1,%esi
  402ea0:	bf 1d 00 00 00       	mov    $0x1d,%edi
  402ea5:	e8 16 df ff ff       	callq  400dc0 <signal@plt>
  402eaa:	be 01 00 00 00       	mov    $0x1,%esi
  402eaf:	bf 1d 00 00 00       	mov    $0x1d,%edi
  402eb4:	e8 07 df ff ff       	callq  400dc0 <signal@plt>
  402eb9:	ba 00 00 00 00       	mov    $0x0,%edx
  402ebe:	be 01 00 00 00       	mov    $0x1,%esi
  402ec3:	bf 02 00 00 00       	mov    $0x2,%edi
  402ec8:	e8 23 e0 ff ff       	callq  400ef0 <socket@plt>
  402ecd:	85 c0                	test   %eax,%eax
  402ecf:	0f 88 a3 00 00 00    	js     402f78 <init_driver+0x107>
  402ed5:	89 c3                	mov    %eax,%ebx
  402ed7:	48 8d 3d 5e 0b 00 00 	lea    0xb5e(%rip),%rdi        # 403a3c <trans_char+0xec>
  402ede:	e8 ed de ff ff       	callq  400dd0 <gethostbyname@plt>
  402ee3:	48 85 c0             	test   %rax,%rax
  402ee6:	0f 84 df 00 00 00    	je     402fcb <init_driver+0x15a>
  402eec:	48 89 e5             	mov    %rsp,%rbp
  402eef:	48 c7 44 24 02 00 00 	movq   $0x0,0x2(%rsp)
  402ef6:	00 00 
  402ef8:	c7 45 0a 00 00 00 00 	movl   $0x0,0xa(%rbp)
  402eff:	66 c7 45 0e 00 00    	movw   $0x0,0xe(%rbp)
  402f05:	66 c7 04 24 02 00    	movw   $0x2,(%rsp)
  402f0b:	48 63 50 14          	movslq 0x14(%rax),%rdx
  402f0f:	48 8b 40 18          	mov    0x18(%rax),%rax
  402f13:	48 8b 30             	mov    (%rax),%rsi
  402f16:	48 8d 7d 04          	lea    0x4(%rbp),%rdi
  402f1a:	b9 0c 00 00 00       	mov    $0xc,%ecx
  402f1f:	e8 bc de ff ff       	callq  400de0 <__memmove_chk@plt>
  402f24:	66 c7 44 24 02 0b b8 	movw   $0xb80b,0x2(%rsp)
  402f2b:	ba 10 00 00 00       	mov    $0x10,%edx
  402f30:	48 89 ee             	mov    %rbp,%rsi
  402f33:	89 df                	mov    %ebx,%edi
  402f35:	e8 86 df ff ff       	callq  400ec0 <connect@plt>
  402f3a:	85 c0                	test   %eax,%eax
  402f3c:	0f 88 fb 00 00 00    	js     40303d <init_driver+0x1cc>
  402f42:	89 df                	mov    %ebx,%edi
  402f44:	e8 47 de ff ff       	callq  400d90 <close@plt>
  402f49:	66 41 c7 04 24 4f 4b 	movw   $0x4b4f,(%r12)
  402f50:	41 c6 44 24 02 00    	movb   $0x0,0x2(%r12)
  402f56:	b8 00 00 00 00       	mov    $0x0,%eax
  402f5b:	48 8b 4c 24 18       	mov    0x18(%rsp),%rcx
  402f60:	64 48 33 0c 25 28 00 	xor    %fs:0x28,%rcx
  402f67:	00 00 
  402f69:	0f 85 28 01 00 00    	jne    403097 <init_driver+0x226>
  402f6f:	48 83 c4 20          	add    $0x20,%rsp
  402f73:	5b                   	pop    %rbx
  402f74:	5d                   	pop    %rbp
  402f75:	41 5c                	pop    %r12
  402f77:	c3                   	retq   
  402f78:	48 b8 45 72 72 6f 72 	movabs $0x43203a726f727245,%rax
  402f7f:	3a 20 43 
  402f82:	48 ba 6c 69 65 6e 74 	movabs $0x6e7520746e65696c,%rdx
  402f89:	20 75 6e 
  402f8c:	49 89 04 24          	mov    %rax,(%r12)
  402f90:	49 89 54 24 08       	mov    %rdx,0x8(%r12)
  402f95:	48 b8 61 62 6c 65 20 	movabs $0x206f7420656c6261,%rax
  402f9c:	74 6f 20 
  402f9f:	48 ba 63 72 65 61 74 	movabs $0x7320657461657263,%rdx
  402fa6:	65 20 73 
  402fa9:	49 89 44 24 10       	mov    %rax,0x10(%r12)
  402fae:	49 89 54 24 18       	mov    %rdx,0x18(%r12)
  402fb3:	41 c7 44 24 20 6f 63 	movl   $0x656b636f,0x20(%r12)
  402fba:	6b 65 
  402fbc:	66 41 c7 44 24 24 74 	movw   $0x74,0x24(%r12)
  402fc3:	00 
  402fc4:	b8 ff ff ff ff       	mov    $0xffffffff,%eax
  402fc9:	eb 90                	jmp    402f5b <init_driver+0xea>
  402fcb:	48 b8 45 72 72 6f 72 	movabs $0x44203a726f727245,%rax
  402fd2:	3a 20 44 
  402fd5:	48 ba 4e 53 20 69 73 	movabs $0x6e7520736920534e,%rdx
  402fdc:	20 75 6e 
  402fdf:	49 89 04 24          	mov    %rax,(%r12)
  402fe3:	49 89 54 24 08       	mov    %rdx,0x8(%r12)
  402fe8:	48 b8 61 62 6c 65 20 	movabs $0x206f7420656c6261,%rax
  402fef:	74 6f 20 
  402ff2:	48 ba 72 65 73 6f 6c 	movabs $0x2065766c6f736572,%rdx
  402ff9:	76 65 20 
  402ffc:	49 89 44 24 10       	mov    %rax,0x10(%r12)
  403001:	49 89 54 24 18       	mov    %rdx,0x18(%r12)
  403006:	48 b8 73 65 72 76 65 	movabs $0x6120726576726573,%rax
  40300d:	72 20 61 
  403010:	49 89 44 24 20       	mov    %rax,0x20(%r12)
  403015:	41 c7 44 24 28 64 64 	movl   $0x65726464,0x28(%r12)
  40301c:	72 65 
  40301e:	66 41 c7 44 24 2c 73 	movw   $0x7373,0x2c(%r12)
  403025:	73 
  403026:	41 c6 44 24 2e 00    	movb   $0x0,0x2e(%r12)
  40302c:	89 df                	mov    %ebx,%edi
  40302e:	e8 5d dd ff ff       	callq  400d90 <close@plt>
  403033:	b8 ff ff ff ff       	mov    $0xffffffff,%eax
  403038:	e9 1e ff ff ff       	jmpq   402f5b <init_driver+0xea>
  40303d:	48 b8 45 72 72 6f 72 	movabs $0x55203a726f727245,%rax
  403044:	3a 20 55 
  403047:	48 ba 6e 61 62 6c 65 	movabs $0x6f7420656c62616e,%rdx
  40304e:	20 74 6f 
  403051:	49 89 04 24          	mov    %rax,(%r12)
  403055:	49 89 54 24 08       	mov    %rdx,0x8(%r12)
  40305a:	48 b8 20 63 6f 6e 6e 	movabs $0x7463656e6e6f6320,%rax
  403061:	65 63 74 
  403064:	48 ba 20 74 6f 20 73 	movabs $0x76726573206f7420,%rdx
  40306b:	65 72 76 
  40306e:	49 89 44 24 10       	mov    %rax,0x10(%r12)
  403073:	49 89 54 24 18       	mov    %rdx,0x18(%r12)
  403078:	66 41 c7 44 24 20 65 	movw   $0x7265,0x20(%r12)
  40307f:	72 
  403080:	41 c6 44 24 22 00    	movb   $0x0,0x22(%r12)
  403086:	89 df                	mov    %ebx,%edi
  403088:	e8 03 dd ff ff       	callq  400d90 <close@plt>
  40308d:	b8 ff ff ff ff       	mov    $0xffffffff,%eax
  403092:	e9 c4 fe ff ff       	jmpq   402f5b <init_driver+0xea>
  403097:	e8 45 f1 ff ff       	callq  4021e1 <__stack_chk_fail>

000000000040309c <driver_post>:
  40309c:	53                   	push   %rbx
  40309d:	4c 89 cb             	mov    %r9,%rbx
  4030a0:	45 85 c0             	test   %r8d,%r8d
  4030a3:	75 18                	jne    4030bd <driver_post+0x21>
  4030a5:	48 85 ff             	test   %rdi,%rdi
  4030a8:	74 05                	je     4030af <driver_post+0x13>
  4030aa:	80 3f 00             	cmpb   $0x0,(%rdi)
  4030ad:	75 37                	jne    4030e6 <driver_post+0x4a>
  4030af:	66 c7 03 4f 4b       	movw   $0x4b4f,(%rbx)
  4030b4:	c6 43 02 00          	movb   $0x0,0x2(%rbx)
  4030b8:	44 89 c0             	mov    %r8d,%eax
  4030bb:	5b                   	pop    %rbx
  4030bc:	c3                   	retq   
  4030bd:	48 89 ca             	mov    %rcx,%rdx
  4030c0:	48 8d 35 85 09 00 00 	lea    0x985(%rip),%rsi        # 403a4c <trans_char+0xfc>
  4030c7:	bf 01 00 00 00       	mov    $0x1,%edi
  4030cc:	b8 00 00 00 00       	mov    $0x0,%eax
  4030d1:	e8 8a dd ff ff       	callq  400e60 <__printf_chk@plt>
  4030d6:	66 c7 03 4f 4b       	movw   $0x4b4f,(%rbx)
  4030db:	c6 43 02 00          	movb   $0x0,0x2(%rbx)
  4030df:	b8 00 00 00 00       	mov    $0x0,%eax
  4030e4:	eb d5                	jmp    4030bb <driver_post+0x1f>
  4030e6:	48 83 ec 08          	sub    $0x8,%rsp
  4030ea:	41 51                	push   %r9
  4030ec:	49 89 c9             	mov    %rcx,%r9
  4030ef:	49 89 d0             	mov    %rdx,%r8
  4030f2:	48 89 f9             	mov    %rdi,%rcx
  4030f5:	48 89 f2             	mov    %rsi,%rdx
  4030f8:	be b8 0b 00 00       	mov    $0xbb8,%esi
  4030fd:	48 8d 3d 38 09 00 00 	lea    0x938(%rip),%rdi        # 403a3c <trans_char+0xec>
  403104:	e8 9c f5 ff ff       	callq  4026a5 <submitr>
  403109:	48 83 c4 10          	add    $0x10,%rsp
  40310d:	eb ac                	jmp    4030bb <driver_post+0x1f>

000000000040310f <check>:
  40310f:	89 f8                	mov    %edi,%eax
  403111:	c1 e8 1c             	shr    $0x1c,%eax
  403114:	85 c0                	test   %eax,%eax
  403116:	74 1d                	je     403135 <check+0x26>
  403118:	b9 00 00 00 00       	mov    $0x0,%ecx
  40311d:	83 f9 1f             	cmp    $0x1f,%ecx
  403120:	7f 0d                	jg     40312f <check+0x20>
  403122:	89 f8                	mov    %edi,%eax
  403124:	d3 e8                	shr    %cl,%eax
  403126:	3c 0a                	cmp    $0xa,%al
  403128:	74 11                	je     40313b <check+0x2c>
  40312a:	83 c1 08             	add    $0x8,%ecx
  40312d:	eb ee                	jmp    40311d <check+0xe>
  40312f:	b8 01 00 00 00       	mov    $0x1,%eax
  403134:	c3                   	retq   
  403135:	b8 00 00 00 00       	mov    $0x0,%eax
  40313a:	c3                   	retq   
  40313b:	b8 00 00 00 00       	mov    $0x0,%eax
  403140:	c3                   	retq   

0000000000403141 <gencookie>:
  403141:	53                   	push   %rbx
  403142:	83 c7 01             	add    $0x1,%edi
  403145:	e8 b6 db ff ff       	callq  400d00 <srandom@plt>
  40314a:	e8 d1 dc ff ff       	callq  400e20 <random@plt>
  40314f:	89 c3                	mov    %eax,%ebx
  403151:	89 c7                	mov    %eax,%edi
  403153:	e8 b7 ff ff ff       	callq  40310f <check>
  403158:	85 c0                	test   %eax,%eax
  40315a:	74 ee                	je     40314a <gencookie+0x9>
  40315c:	89 d8                	mov    %ebx,%eax
  40315e:	5b                   	pop    %rbx
  40315f:	c3                   	retq   

0000000000403160 <__libc_csu_init>:
  403160:	41 57                	push   %r15
  403162:	41 56                	push   %r14
  403164:	49 89 d7             	mov    %rdx,%r15
  403167:	41 55                	push   %r13
  403169:	41 54                	push   %r12
  40316b:	4c 8d 25 8e 1c 20 00 	lea    0x201c8e(%rip),%r12        # 604e00 <__frame_dummy_init_array_entry>
  403172:	55                   	push   %rbp
  403173:	48 8d 2d 8e 1c 20 00 	lea    0x201c8e(%rip),%rbp        # 604e08 <__init_array_end>
  40317a:	53                   	push   %rbx
  40317b:	41 89 fd             	mov    %edi,%r13d
  40317e:	49 89 f6             	mov    %rsi,%r14
  403181:	4c 29 e5             	sub    %r12,%rbp
  403184:	48 83 ec 08          	sub    $0x8,%rsp
  403188:	48 c1 fd 03          	sar    $0x3,%rbp
  40318c:	e8 1f db ff ff       	callq  400cb0 <_init>
  403191:	48 85 ed             	test   %rbp,%rbp
  403194:	74 20                	je     4031b6 <__libc_csu_init+0x56>
  403196:	31 db                	xor    %ebx,%ebx
  403198:	0f 1f 84 00 00 00 00 	nopl   0x0(%rax,%rax,1)
  40319f:	00 
  4031a0:	4c 89 fa             	mov    %r15,%rdx
  4031a3:	4c 89 f6             	mov    %r14,%rsi
  4031a6:	44 89 ef             	mov    %r13d,%edi
  4031a9:	41 ff 14 dc          	callq  *(%r12,%rbx,8)
  4031ad:	48 83 c3 01          	add    $0x1,%rbx
  4031b1:	48 39 dd             	cmp    %rbx,%rbp
  4031b4:	75 ea                	jne    4031a0 <__libc_csu_init+0x40>
  4031b6:	48 83 c4 08          	add    $0x8,%rsp
  4031ba:	5b                   	pop    %rbx
  4031bb:	5d                   	pop    %rbp
  4031bc:	41 5c                	pop    %r12
  4031be:	41 5d                	pop    %r13
  4031c0:	41 5e                	pop    %r14
  4031c2:	41 5f                	pop    %r15
  4031c4:	c3                   	retq   
  4031c5:	90                   	nop
  4031c6:	66 2e 0f 1f 84 00 00 	nopw   %cs:0x0(%rax,%rax,1)
  4031cd:	00 00 00 

00000000004031d0 <__libc_csu_fini>:
  4031d0:	f3 c3                	repz retq 

Disassembly of section .fini:

00000000004031d4 <_fini>:
  4031d4:	48 83 ec 08          	sub    $0x8,%rsp
  4031d8:	48 83 c4 08          	add    $0x8,%rsp
  4031dc:	c3                   	retq   
