
rtarget:     file format elf64-x86-64


Disassembly of section .init:

0000000000400cb0 <_init>:
  400cb0:	48 83 ec 08          	sub    $0x8,%rsp
  400cb4:	48 8b 05 3d 43 20 00 	mov    0x20433d(%rip),%rax        # 604ff8 <__gmon_start__>
  400cbb:	48 85 c0             	test   %rax,%rax
  400cbe:	74 02                	je     400cc2 <_init+0x12>
  400cc0:	ff d0                	callq  *%rax
  400cc2:	48 83 c4 08          	add    $0x8,%rsp
  400cc6:	c3                   	retq   

Disassembly of section .plt:

0000000000400cd0 <.plt>:
  400cd0:	ff 35 32 43 20 00    	pushq  0x204332(%rip)        # 605008 <_GLOBAL_OFFSET_TABLE_+0x8>
  400cd6:	ff 25 34 43 20 00    	jmpq   *0x204334(%rip)        # 605010 <_GLOBAL_OFFSET_TABLE_+0x10>
  400cdc:	0f 1f 40 00          	nopl   0x0(%rax)

0000000000400ce0 <strcasecmp@plt>:
  400ce0:	ff 25 32 43 20 00    	jmpq   *0x204332(%rip)        # 605018 <strcasecmp@GLIBC_2.2.5>
  400ce6:	68 00 00 00 00       	pushq  $0x0
  400ceb:	e9 e0 ff ff ff       	jmpq   400cd0 <.plt>

0000000000400cf0 <__errno_location@plt>:
  400cf0:	ff 25 2a 43 20 00    	jmpq   *0x20432a(%rip)        # 605020 <__errno_location@GLIBC_2.2.5>
  400cf6:	68 01 00 00 00       	pushq  $0x1
  400cfb:	e9 d0 ff ff ff       	jmpq   400cd0 <.plt>

0000000000400d00 <srandom@plt>:
  400d00:	ff 25 22 43 20 00    	jmpq   *0x204322(%rip)        # 605028 <srandom@GLIBC_2.2.5>
  400d06:	68 02 00 00 00       	pushq  $0x2
  400d0b:	e9 c0 ff ff ff       	jmpq   400cd0 <.plt>

0000000000400d10 <strncpy@plt>:
  400d10:	ff 25 1a 43 20 00    	jmpq   *0x20431a(%rip)        # 605030 <strncpy@GLIBC_2.2.5>
  400d16:	68 03 00 00 00       	pushq  $0x3
  400d1b:	e9 b0 ff ff ff       	jmpq   400cd0 <.plt>

0000000000400d20 <strncmp@plt>:
  400d20:	ff 25 12 43 20 00    	jmpq   *0x204312(%rip)        # 605038 <strncmp@GLIBC_2.2.5>
  400d26:	68 04 00 00 00       	pushq  $0x4
  400d2b:	e9 a0 ff ff ff       	jmpq   400cd0 <.plt>

0000000000400d30 <strcpy@plt>:
  400d30:	ff 25 0a 43 20 00    	jmpq   *0x20430a(%rip)        # 605040 <strcpy@GLIBC_2.2.5>
  400d36:	68 05 00 00 00       	pushq  $0x5
  400d3b:	e9 90 ff ff ff       	jmpq   400cd0 <.plt>

0000000000400d40 <puts@plt>:
  400d40:	ff 25 02 43 20 00    	jmpq   *0x204302(%rip)        # 605048 <puts@GLIBC_2.2.5>
  400d46:	68 06 00 00 00       	pushq  $0x6
  400d4b:	e9 80 ff ff ff       	jmpq   400cd0 <.plt>

0000000000400d50 <write@plt>:
  400d50:	ff 25 fa 42 20 00    	jmpq   *0x2042fa(%rip)        # 605050 <write@GLIBC_2.2.5>
  400d56:	68 07 00 00 00       	pushq  $0x7
  400d5b:	e9 70 ff ff ff       	jmpq   400cd0 <.plt>

0000000000400d60 <mmap@plt>:
  400d60:	ff 25 f2 42 20 00    	jmpq   *0x2042f2(%rip)        # 605058 <mmap@GLIBC_2.2.5>
  400d66:	68 08 00 00 00       	pushq  $0x8
  400d6b:	e9 60 ff ff ff       	jmpq   400cd0 <.plt>

0000000000400d70 <memset@plt>:
  400d70:	ff 25 ea 42 20 00    	jmpq   *0x2042ea(%rip)        # 605060 <memset@GLIBC_2.2.5>
  400d76:	68 09 00 00 00       	pushq  $0x9
  400d7b:	e9 50 ff ff ff       	jmpq   400cd0 <.plt>

0000000000400d80 <alarm@plt>:
  400d80:	ff 25 e2 42 20 00    	jmpq   *0x2042e2(%rip)        # 605068 <alarm@GLIBC_2.2.5>
  400d86:	68 0a 00 00 00       	pushq  $0xa
  400d8b:	e9 40 ff ff ff       	jmpq   400cd0 <.plt>

0000000000400d90 <close@plt>:
  400d90:	ff 25 da 42 20 00    	jmpq   *0x2042da(%rip)        # 605070 <close@GLIBC_2.2.5>
  400d96:	68 0b 00 00 00       	pushq  $0xb
  400d9b:	e9 30 ff ff ff       	jmpq   400cd0 <.plt>

0000000000400da0 <read@plt>:
  400da0:	ff 25 d2 42 20 00    	jmpq   *0x2042d2(%rip)        # 605078 <read@GLIBC_2.2.5>
  400da6:	68 0c 00 00 00       	pushq  $0xc
  400dab:	e9 20 ff ff ff       	jmpq   400cd0 <.plt>

0000000000400db0 <strcmp@plt>:
  400db0:	ff 25 ca 42 20 00    	jmpq   *0x2042ca(%rip)        # 605080 <strcmp@GLIBC_2.2.5>
  400db6:	68 0d 00 00 00       	pushq  $0xd
  400dbb:	e9 10 ff ff ff       	jmpq   400cd0 <.plt>

0000000000400dc0 <signal@plt>:
  400dc0:	ff 25 c2 42 20 00    	jmpq   *0x2042c2(%rip)        # 605088 <signal@GLIBC_2.2.5>
  400dc6:	68 0e 00 00 00       	pushq  $0xe
  400dcb:	e9 00 ff ff ff       	jmpq   400cd0 <.plt>

0000000000400dd0 <gethostbyname@plt>:
  400dd0:	ff 25 ba 42 20 00    	jmpq   *0x2042ba(%rip)        # 605090 <gethostbyname@GLIBC_2.2.5>
  400dd6:	68 0f 00 00 00       	pushq  $0xf
  400ddb:	e9 f0 fe ff ff       	jmpq   400cd0 <.plt>

0000000000400de0 <__memmove_chk@plt>:
  400de0:	ff 25 b2 42 20 00    	jmpq   *0x2042b2(%rip)        # 605098 <__memmove_chk@GLIBC_2.3.4>
  400de6:	68 10 00 00 00       	pushq  $0x10
  400deb:	e9 e0 fe ff ff       	jmpq   400cd0 <.plt>

0000000000400df0 <strtol@plt>:
  400df0:	ff 25 aa 42 20 00    	jmpq   *0x2042aa(%rip)        # 6050a0 <strtol@GLIBC_2.2.5>
  400df6:	68 11 00 00 00       	pushq  $0x11
  400dfb:	e9 d0 fe ff ff       	jmpq   400cd0 <.plt>

0000000000400e00 <memcpy@plt>:
  400e00:	ff 25 a2 42 20 00    	jmpq   *0x2042a2(%rip)        # 6050a8 <memcpy@GLIBC_2.14>
  400e06:	68 12 00 00 00       	pushq  $0x12
  400e0b:	e9 c0 fe ff ff       	jmpq   400cd0 <.plt>

0000000000400e10 <time@plt>:
  400e10:	ff 25 9a 42 20 00    	jmpq   *0x20429a(%rip)        # 6050b0 <time@GLIBC_2.2.5>
  400e16:	68 13 00 00 00       	pushq  $0x13
  400e1b:	e9 b0 fe ff ff       	jmpq   400cd0 <.plt>

0000000000400e20 <random@plt>:
  400e20:	ff 25 92 42 20 00    	jmpq   *0x204292(%rip)        # 6050b8 <random@GLIBC_2.2.5>
  400e26:	68 14 00 00 00       	pushq  $0x14
  400e2b:	e9 a0 fe ff ff       	jmpq   400cd0 <.plt>

0000000000400e30 <_IO_getc@plt>:
  400e30:	ff 25 8a 42 20 00    	jmpq   *0x20428a(%rip)        # 6050c0 <_IO_getc@GLIBC_2.2.5>
  400e36:	68 15 00 00 00       	pushq  $0x15
  400e3b:	e9 90 fe ff ff       	jmpq   400cd0 <.plt>

0000000000400e40 <__isoc99_sscanf@plt>:
  400e40:	ff 25 82 42 20 00    	jmpq   *0x204282(%rip)        # 6050c8 <__isoc99_sscanf@GLIBC_2.7>
  400e46:	68 16 00 00 00       	pushq  $0x16
  400e4b:	e9 80 fe ff ff       	jmpq   400cd0 <.plt>

0000000000400e50 <munmap@plt>:
  400e50:	ff 25 7a 42 20 00    	jmpq   *0x20427a(%rip)        # 6050d0 <munmap@GLIBC_2.2.5>
  400e56:	68 17 00 00 00       	pushq  $0x17
  400e5b:	e9 70 fe ff ff       	jmpq   400cd0 <.plt>

0000000000400e60 <__printf_chk@plt>:
  400e60:	ff 25 72 42 20 00    	jmpq   *0x204272(%rip)        # 6050d8 <__printf_chk@GLIBC_2.3.4>
  400e66:	68 18 00 00 00       	pushq  $0x18
  400e6b:	e9 60 fe ff ff       	jmpq   400cd0 <.plt>

0000000000400e70 <fopen@plt>:
  400e70:	ff 25 6a 42 20 00    	jmpq   *0x20426a(%rip)        # 6050e0 <fopen@GLIBC_2.2.5>
  400e76:	68 19 00 00 00       	pushq  $0x19
  400e7b:	e9 50 fe ff ff       	jmpq   400cd0 <.plt>

0000000000400e80 <getopt@plt>:
  400e80:	ff 25 62 42 20 00    	jmpq   *0x204262(%rip)        # 6050e8 <getopt@GLIBC_2.2.5>
  400e86:	68 1a 00 00 00       	pushq  $0x1a
  400e8b:	e9 40 fe ff ff       	jmpq   400cd0 <.plt>

0000000000400e90 <strtoul@plt>:
  400e90:	ff 25 5a 42 20 00    	jmpq   *0x20425a(%rip)        # 6050f0 <strtoul@GLIBC_2.2.5>
  400e96:	68 1b 00 00 00       	pushq  $0x1b
  400e9b:	e9 30 fe ff ff       	jmpq   400cd0 <.plt>

0000000000400ea0 <gethostname@plt>:
  400ea0:	ff 25 52 42 20 00    	jmpq   *0x204252(%rip)        # 6050f8 <gethostname@GLIBC_2.2.5>
  400ea6:	68 1c 00 00 00       	pushq  $0x1c
  400eab:	e9 20 fe ff ff       	jmpq   400cd0 <.plt>

0000000000400eb0 <exit@plt>:
  400eb0:	ff 25 4a 42 20 00    	jmpq   *0x20424a(%rip)        # 605100 <exit@GLIBC_2.2.5>
  400eb6:	68 1d 00 00 00       	pushq  $0x1d
  400ebb:	e9 10 fe ff ff       	jmpq   400cd0 <.plt>

0000000000400ec0 <connect@plt>:
  400ec0:	ff 25 42 42 20 00    	jmpq   *0x204242(%rip)        # 605108 <connect@GLIBC_2.2.5>
  400ec6:	68 1e 00 00 00       	pushq  $0x1e
  400ecb:	e9 00 fe ff ff       	jmpq   400cd0 <.plt>

0000000000400ed0 <__fprintf_chk@plt>:
  400ed0:	ff 25 3a 42 20 00    	jmpq   *0x20423a(%rip)        # 605110 <__fprintf_chk@GLIBC_2.3.4>
  400ed6:	68 1f 00 00 00       	pushq  $0x1f
  400edb:	e9 f0 fd ff ff       	jmpq   400cd0 <.plt>

0000000000400ee0 <__sprintf_chk@plt>:
  400ee0:	ff 25 32 42 20 00    	jmpq   *0x204232(%rip)        # 605118 <__sprintf_chk@GLIBC_2.3.4>
  400ee6:	68 20 00 00 00       	pushq  $0x20
  400eeb:	e9 e0 fd ff ff       	jmpq   400cd0 <.plt>

0000000000400ef0 <socket@plt>:
  400ef0:	ff 25 2a 42 20 00    	jmpq   *0x20422a(%rip)        # 605120 <socket@GLIBC_2.2.5>
  400ef6:	68 21 00 00 00       	pushq  $0x21
  400efb:	e9 d0 fd ff ff       	jmpq   400cd0 <.plt>

Disassembly of section .text:

0000000000400f00 <_start>:
  400f00:	31 ed                	xor    %ebp,%ebp
  400f02:	49 89 d1             	mov    %rdx,%r9
  400f05:	5e                   	pop    %rsi
  400f06:	48 89 e2             	mov    %rsp,%rdx
  400f09:	48 83 e4 f0          	and    $0xfffffffffffffff0,%rsp
  400f0d:	50                   	push   %rax
  400f0e:	54                   	push   %rsp
  400f0f:	49 c7 c0 00 33 40 00 	mov    $0x403300,%r8
  400f16:	48 c7 c1 90 32 40 00 	mov    $0x403290,%rcx
  400f1d:	48 c7 c7 0e 12 40 00 	mov    $0x40120e,%rdi
  400f24:	ff 15 c6 40 20 00    	callq  *0x2040c6(%rip)        # 604ff0 <__libc_start_main@GLIBC_2.2.5>
  400f2a:	f4                   	hlt    
  400f2b:	0f 1f 44 00 00       	nopl   0x0(%rax,%rax,1)

0000000000400f30 <_dl_relocate_static_pie>:
  400f30:	f3 c3                	repz retq 
  400f32:	66 2e 0f 1f 84 00 00 	nopw   %cs:0x0(%rax,%rax,1)
  400f39:	00 00 00 
  400f3c:	0f 1f 40 00          	nopl   0x0(%rax)

0000000000400f40 <deregister_tm_clones>:
  400f40:	55                   	push   %rbp
  400f41:	b8 b0 54 60 00       	mov    $0x6054b0,%eax
  400f46:	48 3d b0 54 60 00    	cmp    $0x6054b0,%rax
  400f4c:	48 89 e5             	mov    %rsp,%rbp
  400f4f:	74 17                	je     400f68 <deregister_tm_clones+0x28>
  400f51:	b8 00 00 00 00       	mov    $0x0,%eax
  400f56:	48 85 c0             	test   %rax,%rax
  400f59:	74 0d                	je     400f68 <deregister_tm_clones+0x28>
  400f5b:	5d                   	pop    %rbp
  400f5c:	bf b0 54 60 00       	mov    $0x6054b0,%edi
  400f61:	ff e0                	jmpq   *%rax
  400f63:	0f 1f 44 00 00       	nopl   0x0(%rax,%rax,1)
  400f68:	5d                   	pop    %rbp
  400f69:	c3                   	retq   
  400f6a:	66 0f 1f 44 00 00    	nopw   0x0(%rax,%rax,1)

0000000000400f70 <register_tm_clones>:
  400f70:	be b0 54 60 00       	mov    $0x6054b0,%esi
  400f75:	55                   	push   %rbp
  400f76:	48 81 ee b0 54 60 00 	sub    $0x6054b0,%rsi
  400f7d:	48 89 e5             	mov    %rsp,%rbp
  400f80:	48 c1 fe 03          	sar    $0x3,%rsi
  400f84:	48 89 f0             	mov    %rsi,%rax
  400f87:	48 c1 e8 3f          	shr    $0x3f,%rax
  400f8b:	48 01 c6             	add    %rax,%rsi
  400f8e:	48 d1 fe             	sar    %rsi
  400f91:	74 15                	je     400fa8 <register_tm_clones+0x38>
  400f93:	b8 00 00 00 00       	mov    $0x0,%eax
  400f98:	48 85 c0             	test   %rax,%rax
  400f9b:	74 0b                	je     400fa8 <register_tm_clones+0x38>
  400f9d:	5d                   	pop    %rbp
  400f9e:	bf b0 54 60 00       	mov    $0x6054b0,%edi
  400fa3:	ff e0                	jmpq   *%rax
  400fa5:	0f 1f 00             	nopl   (%rax)
  400fa8:	5d                   	pop    %rbp
  400fa9:	c3                   	retq   
  400faa:	66 0f 1f 44 00 00    	nopw   0x0(%rax,%rax,1)

0000000000400fb0 <__do_global_dtors_aux>:
  400fb0:	80 3d 31 45 20 00 00 	cmpb   $0x0,0x204531(%rip)        # 6054e8 <completed.7698>
  400fb7:	75 17                	jne    400fd0 <__do_global_dtors_aux+0x20>
  400fb9:	55                   	push   %rbp
  400fba:	48 89 e5             	mov    %rsp,%rbp
  400fbd:	e8 7e ff ff ff       	callq  400f40 <deregister_tm_clones>
  400fc2:	c6 05 1f 45 20 00 01 	movb   $0x1,0x20451f(%rip)        # 6054e8 <completed.7698>
  400fc9:	5d                   	pop    %rbp
  400fca:	c3                   	retq   
  400fcb:	0f 1f 44 00 00       	nopl   0x0(%rax,%rax,1)
  400fd0:	f3 c3                	repz retq 
  400fd2:	0f 1f 40 00          	nopl   0x0(%rax)
  400fd6:	66 2e 0f 1f 84 00 00 	nopw   %cs:0x0(%rax,%rax,1)
  400fdd:	00 00 00 

0000000000400fe0 <frame_dummy>:
  400fe0:	55                   	push   %rbp
  400fe1:	48 89 e5             	mov    %rsp,%rbp
  400fe4:	5d                   	pop    %rbp
  400fe5:	eb 89                	jmp    400f70 <register_tm_clones>

0000000000400fe7 <usage>:
  400fe7:	48 83 ec 08          	sub    $0x8,%rsp
  400feb:	48 89 fa             	mov    %rdi,%rdx
  400fee:	83 3d 33 45 20 00 00 	cmpl   $0x0,0x204533(%rip)        # 605528 <is_checker>
  400ff5:	74 50                	je     401047 <usage+0x60>
  400ff7:	48 8d 35 1a 23 00 00 	lea    0x231a(%rip),%rsi        # 403318 <_IO_stdin_used+0x8>
  400ffe:	bf 01 00 00 00       	mov    $0x1,%edi
  401003:	b8 00 00 00 00       	mov    $0x0,%eax
  401008:	e8 53 fe ff ff       	callq  400e60 <__printf_chk@plt>
  40100d:	48 8d 3d 3c 23 00 00 	lea    0x233c(%rip),%rdi        # 403350 <_IO_stdin_used+0x40>
  401014:	e8 27 fd ff ff       	callq  400d40 <puts@plt>
  401019:	48 8d 3d c0 24 00 00 	lea    0x24c0(%rip),%rdi        # 4034e0 <_IO_stdin_used+0x1d0>
  401020:	e8 1b fd ff ff       	callq  400d40 <puts@plt>
  401025:	48 8d 3d 4c 23 00 00 	lea    0x234c(%rip),%rdi        # 403378 <_IO_stdin_used+0x68>
  40102c:	e8 0f fd ff ff       	callq  400d40 <puts@plt>
  401031:	48 8d 3d c2 24 00 00 	lea    0x24c2(%rip),%rdi        # 4034fa <_IO_stdin_used+0x1ea>
  401038:	e8 03 fd ff ff       	callq  400d40 <puts@plt>
  40103d:	bf 00 00 00 00       	mov    $0x0,%edi
  401042:	e8 69 fe ff ff       	callq  400eb0 <exit@plt>
  401047:	48 8d 35 c8 24 00 00 	lea    0x24c8(%rip),%rsi        # 403516 <_IO_stdin_used+0x206>
  40104e:	bf 01 00 00 00       	mov    $0x1,%edi
  401053:	b8 00 00 00 00       	mov    $0x0,%eax
  401058:	e8 03 fe ff ff       	callq  400e60 <__printf_chk@plt>
  40105d:	48 8d 3d 3c 23 00 00 	lea    0x233c(%rip),%rdi        # 4033a0 <_IO_stdin_used+0x90>
  401064:	e8 d7 fc ff ff       	callq  400d40 <puts@plt>
  401069:	48 8d 3d 58 23 00 00 	lea    0x2358(%rip),%rdi        # 4033c8 <_IO_stdin_used+0xb8>
  401070:	e8 cb fc ff ff       	callq  400d40 <puts@plt>
  401075:	48 8d 3d b8 24 00 00 	lea    0x24b8(%rip),%rdi        # 403534 <_IO_stdin_used+0x224>
  40107c:	e8 bf fc ff ff       	callq  400d40 <puts@plt>
  401081:	eb ba                	jmp    40103d <usage+0x56>

0000000000401083 <initialize_target>:
  401083:	55                   	push   %rbp
  401084:	53                   	push   %rbx
  401085:	48 81 ec 18 21 00 00 	sub    $0x2118,%rsp
  40108c:	89 f5                	mov    %esi,%ebp
  40108e:	64 48 8b 04 25 28 00 	mov    %fs:0x28,%rax
  401095:	00 00 
  401097:	48 89 84 24 08 21 00 	mov    %rax,0x2108(%rsp)
  40109e:	00 
  40109f:	31 c0                	xor    %eax,%eax
  4010a1:	89 3d 71 44 20 00    	mov    %edi,0x204471(%rip)        # 605518 <check_level>
  4010a7:	8b 3d a3 40 20 00    	mov    0x2040a3(%rip),%edi        # 605150 <target_id>
  4010ad:	e8 b3 21 00 00       	callq  403265 <gencookie>
  4010b2:	89 05 6c 44 20 00    	mov    %eax,0x20446c(%rip)        # 605524 <cookie>
  4010b8:	89 c7                	mov    %eax,%edi
  4010ba:	e8 a6 21 00 00       	callq  403265 <gencookie>
  4010bf:	89 05 5b 44 20 00    	mov    %eax,0x20445b(%rip)        # 605520 <authkey>
  4010c5:	8b 05 85 40 20 00    	mov    0x204085(%rip),%eax        # 605150 <target_id>
  4010cb:	8d 78 01             	lea    0x1(%rax),%edi
  4010ce:	e8 2d fc ff ff       	callq  400d00 <srandom@plt>
  4010d3:	e8 48 fd ff ff       	callq  400e20 <random@plt>
  4010d8:	89 c7                	mov    %eax,%edi
  4010da:	e8 93 03 00 00       	callq  401472 <scramble>
  4010df:	89 c3                	mov    %eax,%ebx
  4010e1:	85 ed                	test   %ebp,%ebp
  4010e3:	75 54                	jne    401139 <initialize_target+0xb6>
  4010e5:	b8 00 00 00 00       	mov    $0x0,%eax
  4010ea:	01 d8                	add    %ebx,%eax
  4010ec:	0f b7 c0             	movzwl %ax,%eax
  4010ef:	8d 04 c5 00 01 00 00 	lea    0x100(,%rax,8),%eax
  4010f6:	89 c0                	mov    %eax,%eax
  4010f8:	48 89 05 a1 43 20 00 	mov    %rax,0x2043a1(%rip)        # 6054a0 <buf_offset>
  4010ff:	c6 05 42 50 20 00 72 	movb   $0x72,0x205042(%rip)        # 606148 <target_prefix>
  401106:	83 3d 9b 43 20 00 00 	cmpl   $0x0,0x20439b(%rip)        # 6054a8 <notify>
  40110d:	74 09                	je     401118 <initialize_target+0x95>
  40110f:	83 3d 12 44 20 00 00 	cmpl   $0x0,0x204412(%rip)        # 605528 <is_checker>
  401116:	74 39                	je     401151 <initialize_target+0xce>
  401118:	48 8b 84 24 08 21 00 	mov    0x2108(%rsp),%rax
  40111f:	00 
  401120:	64 48 33 04 25 28 00 	xor    %fs:0x28,%rax
  401127:	00 00 
  401129:	0f 85 da 00 00 00    	jne    401209 <initialize_target+0x186>
  40112f:	48 81 c4 18 21 00 00 	add    $0x2118,%rsp
  401136:	5b                   	pop    %rbx
  401137:	5d                   	pop    %rbp
  401138:	c3                   	retq   
  401139:	bf 00 00 00 00       	mov    $0x0,%edi
  40113e:	e8 cd fc ff ff       	callq  400e10 <time@plt>
  401143:	89 c7                	mov    %eax,%edi
  401145:	e8 b6 fb ff ff       	callq  400d00 <srandom@plt>
  40114a:	e8 d1 fc ff ff       	callq  400e20 <random@plt>
  40114f:	eb 99                	jmp    4010ea <initialize_target+0x67>
  401151:	48 89 e7             	mov    %rsp,%rdi
  401154:	be 00 01 00 00       	mov    $0x100,%esi
  401159:	e8 42 fd ff ff       	callq  400ea0 <gethostname@plt>
  40115e:	89 c5                	mov    %eax,%ebp
  401160:	85 c0                	test   %eax,%eax
  401162:	75 26                	jne    40118a <initialize_target+0x107>
  401164:	89 c3                	mov    %eax,%ebx
  401166:	48 63 c3             	movslq %ebx,%rax
  401169:	48 8d 15 10 40 20 00 	lea    0x204010(%rip),%rdx        # 605180 <host_table>
  401170:	48 8b 3c c2          	mov    (%rdx,%rax,8),%rdi
  401174:	48 85 ff             	test   %rdi,%rdi
  401177:	74 2c                	je     4011a5 <initialize_target+0x122>
  401179:	48 89 e6             	mov    %rsp,%rsi
  40117c:	e8 5f fb ff ff       	callq  400ce0 <strcasecmp@plt>
  401181:	85 c0                	test   %eax,%eax
  401183:	74 1b                	je     4011a0 <initialize_target+0x11d>
  401185:	83 c3 01             	add    $0x1,%ebx
  401188:	eb dc                	jmp    401166 <initialize_target+0xe3>
  40118a:	48 8d 3d 67 22 00 00 	lea    0x2267(%rip),%rdi        # 4033f8 <_IO_stdin_used+0xe8>
  401191:	e8 aa fb ff ff       	callq  400d40 <puts@plt>
  401196:	bf 08 00 00 00       	mov    $0x8,%edi
  40119b:	e8 10 fd ff ff       	callq  400eb0 <exit@plt>
  4011a0:	bd 01 00 00 00       	mov    $0x1,%ebp
  4011a5:	85 ed                	test   %ebp,%ebp
  4011a7:	74 3d                	je     4011e6 <initialize_target+0x163>
  4011a9:	48 8d bc 24 00 01 00 	lea    0x100(%rsp),%rdi
  4011b0:	00 
  4011b1:	e8 df 1d 00 00       	callq  402f95 <init_driver>
  4011b6:	85 c0                	test   %eax,%eax
  4011b8:	0f 89 5a ff ff ff    	jns    401118 <initialize_target+0x95>
  4011be:	48 8d 94 24 00 01 00 	lea    0x100(%rsp),%rdx
  4011c5:	00 
  4011c6:	48 8d 35 a3 22 00 00 	lea    0x22a3(%rip),%rsi        # 403470 <_IO_stdin_used+0x160>
  4011cd:	bf 01 00 00 00       	mov    $0x1,%edi
  4011d2:	b8 00 00 00 00       	mov    $0x0,%eax
  4011d7:	e8 84 fc ff ff       	callq  400e60 <__printf_chk@plt>
  4011dc:	bf 08 00 00 00       	mov    $0x8,%edi
  4011e1:	e8 ca fc ff ff       	callq  400eb0 <exit@plt>
  4011e6:	48 89 e2             	mov    %rsp,%rdx
  4011e9:	48 8d 35 40 22 00 00 	lea    0x2240(%rip),%rsi        # 403430 <_IO_stdin_used+0x120>
  4011f0:	bf 01 00 00 00       	mov    $0x1,%edi
  4011f5:	b8 00 00 00 00       	mov    $0x0,%eax
  4011fa:	e8 61 fc ff ff       	callq  400e60 <__printf_chk@plt>
  4011ff:	bf 08 00 00 00       	mov    $0x8,%edi
  401204:	e8 a7 fc ff ff       	callq  400eb0 <exit@plt>
  401209:	e8 f7 10 00 00       	callq  402305 <__stack_chk_fail>

000000000040120e <main>:
  40120e:	41 56                	push   %r14
  401210:	41 55                	push   %r13
  401212:	41 54                	push   %r12
  401214:	55                   	push   %rbp
  401215:	53                   	push   %rbx
  401216:	48 83 ec 60          	sub    $0x60,%rsp
  40121a:	89 fd                	mov    %edi,%ebp
  40121c:	48 89 f3             	mov    %rsi,%rbx
  40121f:	64 48 8b 04 25 28 00 	mov    %fs:0x28,%rax
  401226:	00 00 
  401228:	48 89 44 24 58       	mov    %rax,0x58(%rsp)
  40122d:	31 c0                	xor    %eax,%eax
  40122f:	48 b8 53 70 69 72 69 	movabs $0x6465746972697053,%rax
  401236:	74 65 64 
  401239:	48 89 04 24          	mov    %rax,(%rsp)
  40123d:	c7 44 24 08 41 77 61 	movl   $0x79617741,0x8(%rsp)
  401244:	79 
  401245:	66 c7 44 24 0c 43 4e 	movw   $0x4e43,0xc(%rsp)
  40124c:	c6 44 24 0e 00       	movb   $0x0,0xe(%rsp)
  401251:	48 c7 c6 06 22 40 00 	mov    $0x402206,%rsi
  401258:	bf 0b 00 00 00       	mov    $0xb,%edi
  40125d:	e8 5e fb ff ff       	callq  400dc0 <signal@plt>
  401262:	48 c7 c6 b2 21 40 00 	mov    $0x4021b2,%rsi
  401269:	bf 07 00 00 00       	mov    $0x7,%edi
  40126e:	e8 4d fb ff ff       	callq  400dc0 <signal@plt>
  401273:	48 c7 c6 5a 22 40 00 	mov    $0x40225a,%rsi
  40127a:	bf 04 00 00 00       	mov    $0x4,%edi
  40127f:	e8 3c fb ff ff       	callq  400dc0 <signal@plt>
  401284:	83 3d 9d 42 20 00 00 	cmpl   $0x0,0x20429d(%rip)        # 605528 <is_checker>
  40128b:	75 26                	jne    4012b3 <main+0xa5>
  40128d:	4c 8d 25 b9 22 00 00 	lea    0x22b9(%rip),%r12        # 40354d <_IO_stdin_used+0x23d>
  401294:	48 8b 05 25 42 20 00 	mov    0x204225(%rip),%rax        # 6054c0 <stdin@@GLIBC_2.2.5>
  40129b:	48 89 05 6e 42 20 00 	mov    %rax,0x20426e(%rip)        # 605510 <infile>
  4012a2:	41 bd 00 00 00 00    	mov    $0x0,%r13d
  4012a8:	41 be 00 00 00 00    	mov    $0x0,%r14d
  4012ae:	e9 8d 00 00 00       	jmpq   401340 <main+0x132>
  4012b3:	48 c7 c6 ae 22 40 00 	mov    $0x4022ae,%rsi
  4012ba:	bf 0e 00 00 00       	mov    $0xe,%edi
  4012bf:	e8 fc fa ff ff       	callq  400dc0 <signal@plt>
  4012c4:	bf 02 00 00 00       	mov    $0x2,%edi
  4012c9:	e8 b2 fa ff ff       	callq  400d80 <alarm@plt>
  4012ce:	4c 8d 25 7d 22 00 00 	lea    0x227d(%rip),%r12        # 403552 <_IO_stdin_used+0x242>
  4012d5:	eb bd                	jmp    401294 <main+0x86>
  4012d7:	48 8b 3b             	mov    (%rbx),%rdi
  4012da:	e8 08 fd ff ff       	callq  400fe7 <usage>
  4012df:	48 8d 35 3e 23 00 00 	lea    0x233e(%rip),%rsi        # 403624 <_IO_stdin_used+0x314>
  4012e6:	48 8b 3d db 41 20 00 	mov    0x2041db(%rip),%rdi        # 6054c8 <optarg@@GLIBC_2.2.5>
  4012ed:	e8 7e fb ff ff       	callq  400e70 <fopen@plt>
  4012f2:	48 89 05 17 42 20 00 	mov    %rax,0x204217(%rip)        # 605510 <infile>
  4012f9:	48 85 c0             	test   %rax,%rax
  4012fc:	75 42                	jne    401340 <main+0x132>
  4012fe:	48 8b 0d c3 41 20 00 	mov    0x2041c3(%rip),%rcx        # 6054c8 <optarg@@GLIBC_2.2.5>
  401305:	48 8d 15 50 22 00 00 	lea    0x2250(%rip),%rdx        # 40355c <_IO_stdin_used+0x24c>
  40130c:	be 01 00 00 00       	mov    $0x1,%esi
  401311:	48 8b 3d c8 41 20 00 	mov    0x2041c8(%rip),%rdi        # 6054e0 <stderr@@GLIBC_2.2.5>
  401318:	e8 b3 fb ff ff       	callq  400ed0 <__fprintf_chk@plt>
  40131d:	b8 01 00 00 00       	mov    $0x1,%eax
  401322:	e9 29 01 00 00       	jmpq   401450 <main+0x242>
  401327:	ba 10 00 00 00       	mov    $0x10,%edx
  40132c:	be 00 00 00 00       	mov    $0x0,%esi
  401331:	48 8b 3d 90 41 20 00 	mov    0x204190(%rip),%rdi        # 6054c8 <optarg@@GLIBC_2.2.5>
  401338:	e8 53 fb ff ff       	callq  400e90 <strtoul@plt>
  40133d:	41 89 c6             	mov    %eax,%r14d
  401340:	4c 89 e2             	mov    %r12,%rdx
  401343:	48 89 de             	mov    %rbx,%rsi
  401346:	89 ef                	mov    %ebp,%edi
  401348:	e8 33 fb ff ff       	callq  400e80 <getopt@plt>
  40134d:	3c ff                	cmp    $0xff,%al
  40134f:	74 78                	je     4013c9 <main+0x1bb>
  401351:	0f be d0             	movsbl %al,%edx
  401354:	83 e8 61             	sub    $0x61,%eax
  401357:	3c 14                	cmp    $0x14,%al
  401359:	77 50                	ja     4013ab <main+0x19d>
  40135b:	0f b6 c0             	movzbl %al,%eax
  40135e:	48 8d 0d 37 22 00 00 	lea    0x2237(%rip),%rcx        # 40359c <_IO_stdin_used+0x28c>
  401365:	48 63 04 81          	movslq (%rcx,%rax,4),%rax
  401369:	48 01 c8             	add    %rcx,%rax
  40136c:	ff e0                	jmpq   *%rax
  40136e:	ba 0a 00 00 00       	mov    $0xa,%edx
  401373:	be 00 00 00 00       	mov    $0x0,%esi
  401378:	48 8b 3d 49 41 20 00 	mov    0x204149(%rip),%rdi        # 6054c8 <optarg@@GLIBC_2.2.5>
  40137f:	e8 6c fa ff ff       	callq  400df0 <strtol@plt>
  401384:	41 89 c5             	mov    %eax,%r13d
  401387:	eb b7                	jmp    401340 <main+0x132>
  401389:	c7 05 15 41 20 00 00 	movl   $0x0,0x204115(%rip)        # 6054a8 <notify>
  401390:	00 00 00 
  401393:	eb ab                	jmp    401340 <main+0x132>
  401395:	48 89 e7             	mov    %rsp,%rdi
  401398:	ba 50 00 00 00       	mov    $0x50,%edx
  40139d:	48 8b 35 24 41 20 00 	mov    0x204124(%rip),%rsi        # 6054c8 <optarg@@GLIBC_2.2.5>
  4013a4:	e8 67 f9 ff ff       	callq  400d10 <strncpy@plt>
  4013a9:	eb 95                	jmp    401340 <main+0x132>
  4013ab:	48 8d 35 c7 21 00 00 	lea    0x21c7(%rip),%rsi        # 403579 <_IO_stdin_used+0x269>
  4013b2:	bf 01 00 00 00       	mov    $0x1,%edi
  4013b7:	b8 00 00 00 00       	mov    $0x0,%eax
  4013bc:	e8 9f fa ff ff       	callq  400e60 <__printf_chk@plt>
  4013c1:	48 8b 3b             	mov    (%rbx),%rdi
  4013c4:	e8 1e fc ff ff       	callq  400fe7 <usage>
  4013c9:	be 01 00 00 00       	mov    $0x1,%esi
  4013ce:	44 89 ef             	mov    %r13d,%edi
  4013d1:	e8 ad fc ff ff       	callq  401083 <initialize_target>
  4013d6:	83 3d 4b 41 20 00 00 	cmpl   $0x0,0x20414b(%rip)        # 605528 <is_checker>
  4013dd:	74 3f                	je     40141e <main+0x210>
  4013df:	44 39 35 3a 41 20 00 	cmp    %r14d,0x20413a(%rip)        # 605520 <authkey>
  4013e6:	75 13                	jne    4013fb <main+0x1ed>
  4013e8:	48 89 e7             	mov    %rsp,%rdi
  4013eb:	48 8b 35 6e 3d 20 00 	mov    0x203d6e(%rip),%rsi        # 605160 <user_id>
  4013f2:	e8 b9 f9 ff ff       	callq  400db0 <strcmp@plt>
  4013f7:	85 c0                	test   %eax,%eax
  4013f9:	74 23                	je     40141e <main+0x210>
  4013fb:	44 89 f2             	mov    %r14d,%edx
  4013fe:	48 8d 35 93 20 00 00 	lea    0x2093(%rip),%rsi        # 403498 <_IO_stdin_used+0x188>
  401405:	bf 01 00 00 00       	mov    $0x1,%edi
  40140a:	b8 00 00 00 00       	mov    $0x0,%eax
  40140f:	e8 4c fa ff ff       	callq  400e60 <__printf_chk@plt>
  401414:	b8 00 00 00 00       	mov    $0x0,%eax
  401419:	e8 f5 09 00 00       	callq  401e13 <check_fail>
  40141e:	8b 15 00 41 20 00    	mov    0x204100(%rip),%edx        # 605524 <cookie>
  401424:	48 8d 35 61 21 00 00 	lea    0x2161(%rip),%rsi        # 40358c <_IO_stdin_used+0x27c>
  40142b:	bf 01 00 00 00       	mov    $0x1,%edi
  401430:	b8 00 00 00 00       	mov    $0x0,%eax
  401435:	e8 26 fa ff ff       	callq  400e60 <__printf_chk@plt>
  40143a:	be 00 00 00 00       	mov    $0x0,%esi
  40143f:	48 8b 3d 5a 40 20 00 	mov    0x20405a(%rip),%rdi        # 6054a0 <buf_offset>
  401446:	e8 0e 0f 00 00       	callq  402359 <launch>
  40144b:	b8 00 00 00 00       	mov    $0x0,%eax
  401450:	48 8b 5c 24 58       	mov    0x58(%rsp),%rbx
  401455:	64 48 33 1c 25 28 00 	xor    %fs:0x28,%rbx
  40145c:	00 00 
  40145e:	75 0d                	jne    40146d <main+0x25f>
  401460:	48 83 c4 60          	add    $0x60,%rsp
  401464:	5b                   	pop    %rbx
  401465:	5d                   	pop    %rbp
  401466:	41 5c                	pop    %r12
  401468:	41 5d                	pop    %r13
  40146a:	41 5e                	pop    %r14
  40146c:	c3                   	retq   
  40146d:	e8 93 0e 00 00       	callq  402305 <__stack_chk_fail>

0000000000401472 <scramble>:
  401472:	48 83 ec 38          	sub    $0x38,%rsp
  401476:	64 48 8b 04 25 28 00 	mov    %fs:0x28,%rax
  40147d:	00 00 
  40147f:	48 89 44 24 28       	mov    %rax,0x28(%rsp)
  401484:	31 c0                	xor    %eax,%eax
  401486:	eb 10                	jmp    401498 <scramble+0x26>
  401488:	69 d0 dc 8c 00 00    	imul   $0x8cdc,%eax,%edx
  40148e:	01 fa                	add    %edi,%edx
  401490:	89 c1                	mov    %eax,%ecx
  401492:	89 14 8c             	mov    %edx,(%rsp,%rcx,4)
  401495:	83 c0 01             	add    $0x1,%eax
  401498:	83 f8 09             	cmp    $0x9,%eax
  40149b:	76 eb                	jbe    401488 <scramble+0x16>
  40149d:	8b 44 24 24          	mov    0x24(%rsp),%eax
  4014a1:	69 c0 39 dc 00 00    	imul   $0xdc39,%eax,%eax
  4014a7:	89 44 24 24          	mov    %eax,0x24(%rsp)
  4014ab:	8b 44 24 14          	mov    0x14(%rsp),%eax
  4014af:	69 c0 3a 0e 00 00    	imul   $0xe3a,%eax,%eax
  4014b5:	89 44 24 14          	mov    %eax,0x14(%rsp)
  4014b9:	8b 44 24 18          	mov    0x18(%rsp),%eax
  4014bd:	69 c0 71 06 00 00    	imul   $0x671,%eax,%eax
  4014c3:	89 44 24 18          	mov    %eax,0x18(%rsp)
  4014c7:	8b 44 24 18          	mov    0x18(%rsp),%eax
  4014cb:	69 c0 c0 49 00 00    	imul   $0x49c0,%eax,%eax
  4014d1:	89 44 24 18          	mov    %eax,0x18(%rsp)
  4014d5:	8b 44 24 04          	mov    0x4(%rsp),%eax
  4014d9:	69 c0 c8 ad 00 00    	imul   $0xadc8,%eax,%eax
  4014df:	89 44 24 04          	mov    %eax,0x4(%rsp)
  4014e3:	8b 44 24 20          	mov    0x20(%rsp),%eax
  4014e7:	69 c0 7b c8 00 00    	imul   $0xc87b,%eax,%eax
  4014ed:	89 44 24 20          	mov    %eax,0x20(%rsp)
  4014f1:	8b 44 24 24          	mov    0x24(%rsp),%eax
  4014f5:	69 c0 be af 00 00    	imul   $0xafbe,%eax,%eax
  4014fb:	89 44 24 24          	mov    %eax,0x24(%rsp)
  4014ff:	8b 44 24 18          	mov    0x18(%rsp),%eax
  401503:	69 c0 12 30 00 00    	imul   $0x3012,%eax,%eax
  401509:	89 44 24 18          	mov    %eax,0x18(%rsp)
  40150d:	8b 44 24 08          	mov    0x8(%rsp),%eax
  401511:	69 c0 27 49 00 00    	imul   $0x4927,%eax,%eax
  401517:	89 44 24 08          	mov    %eax,0x8(%rsp)
  40151b:	8b 44 24 18          	mov    0x18(%rsp),%eax
  40151f:	69 c0 39 9e 00 00    	imul   $0x9e39,%eax,%eax
  401525:	89 44 24 18          	mov    %eax,0x18(%rsp)
  401529:	8b 44 24 18          	mov    0x18(%rsp),%eax
  40152d:	69 c0 c9 94 00 00    	imul   $0x94c9,%eax,%eax
  401533:	89 44 24 18          	mov    %eax,0x18(%rsp)
  401537:	8b 44 24 24          	mov    0x24(%rsp),%eax
  40153b:	69 c0 6a 09 00 00    	imul   $0x96a,%eax,%eax
  401541:	89 44 24 24          	mov    %eax,0x24(%rsp)
  401545:	8b 44 24 04          	mov    0x4(%rsp),%eax
  401549:	69 c0 04 36 00 00    	imul   $0x3604,%eax,%eax
  40154f:	89 44 24 04          	mov    %eax,0x4(%rsp)
  401553:	8b 04 24             	mov    (%rsp),%eax
  401556:	69 c0 1b 5b 00 00    	imul   $0x5b1b,%eax,%eax
  40155c:	89 04 24             	mov    %eax,(%rsp)
  40155f:	8b 44 24 0c          	mov    0xc(%rsp),%eax
  401563:	69 c0 1e cd 00 00    	imul   $0xcd1e,%eax,%eax
  401569:	89 44 24 0c          	mov    %eax,0xc(%rsp)
  40156d:	8b 44 24 1c          	mov    0x1c(%rsp),%eax
  401571:	69 c0 18 a1 00 00    	imul   $0xa118,%eax,%eax
  401577:	89 44 24 1c          	mov    %eax,0x1c(%rsp)
  40157b:	8b 44 24 18          	mov    0x18(%rsp),%eax
  40157f:	69 c0 54 36 00 00    	imul   $0x3654,%eax,%eax
  401585:	89 44 24 18          	mov    %eax,0x18(%rsp)
  401589:	8b 44 24 24          	mov    0x24(%rsp),%eax
  40158d:	69 c0 2d 77 00 00    	imul   $0x772d,%eax,%eax
  401593:	89 44 24 24          	mov    %eax,0x24(%rsp)
  401597:	8b 44 24 1c          	mov    0x1c(%rsp),%eax
  40159b:	69 c0 03 36 00 00    	imul   $0x3603,%eax,%eax
  4015a1:	89 44 24 1c          	mov    %eax,0x1c(%rsp)
  4015a5:	8b 44 24 24          	mov    0x24(%rsp),%eax
  4015a9:	69 c0 fe a0 00 00    	imul   $0xa0fe,%eax,%eax
  4015af:	89 44 24 24          	mov    %eax,0x24(%rsp)
  4015b3:	8b 44 24 1c          	mov    0x1c(%rsp),%eax
  4015b7:	69 c0 29 08 00 00    	imul   $0x829,%eax,%eax
  4015bd:	89 44 24 1c          	mov    %eax,0x1c(%rsp)
  4015c1:	8b 44 24 14          	mov    0x14(%rsp),%eax
  4015c5:	69 c0 ef 85 00 00    	imul   $0x85ef,%eax,%eax
  4015cb:	89 44 24 14          	mov    %eax,0x14(%rsp)
  4015cf:	8b 44 24 0c          	mov    0xc(%rsp),%eax
  4015d3:	69 c0 4b 36 00 00    	imul   $0x364b,%eax,%eax
  4015d9:	89 44 24 0c          	mov    %eax,0xc(%rsp)
  4015dd:	8b 44 24 10          	mov    0x10(%rsp),%eax
  4015e1:	69 c0 b5 83 00 00    	imul   $0x83b5,%eax,%eax
  4015e7:	89 44 24 10          	mov    %eax,0x10(%rsp)
  4015eb:	8b 44 24 1c          	mov    0x1c(%rsp),%eax
  4015ef:	69 c0 a9 d5 00 00    	imul   $0xd5a9,%eax,%eax
  4015f5:	89 44 24 1c          	mov    %eax,0x1c(%rsp)
  4015f9:	8b 44 24 10          	mov    0x10(%rsp),%eax
  4015fd:	69 c0 75 a1 00 00    	imul   $0xa175,%eax,%eax
  401603:	89 44 24 10          	mov    %eax,0x10(%rsp)
  401607:	8b 44 24 0c          	mov    0xc(%rsp),%eax
  40160b:	69 c0 73 af 00 00    	imul   $0xaf73,%eax,%eax
  401611:	89 44 24 0c          	mov    %eax,0xc(%rsp)
  401615:	8b 44 24 24          	mov    0x24(%rsp),%eax
  401619:	69 c0 59 3d 00 00    	imul   $0x3d59,%eax,%eax
  40161f:	89 44 24 24          	mov    %eax,0x24(%rsp)
  401623:	8b 44 24 0c          	mov    0xc(%rsp),%eax
  401627:	69 c0 31 d7 00 00    	imul   $0xd731,%eax,%eax
  40162d:	89 44 24 0c          	mov    %eax,0xc(%rsp)
  401631:	8b 44 24 24          	mov    0x24(%rsp),%eax
  401635:	69 c0 b3 f9 00 00    	imul   $0xf9b3,%eax,%eax
  40163b:	89 44 24 24          	mov    %eax,0x24(%rsp)
  40163f:	8b 44 24 04          	mov    0x4(%rsp),%eax
  401643:	69 c0 54 47 00 00    	imul   $0x4754,%eax,%eax
  401649:	89 44 24 04          	mov    %eax,0x4(%rsp)
  40164d:	8b 44 24 08          	mov    0x8(%rsp),%eax
  401651:	69 c0 a6 4d 00 00    	imul   $0x4da6,%eax,%eax
  401657:	89 44 24 08          	mov    %eax,0x8(%rsp)
  40165b:	8b 44 24 0c          	mov    0xc(%rsp),%eax
  40165f:	69 c0 1e 4a 00 00    	imul   $0x4a1e,%eax,%eax
  401665:	89 44 24 0c          	mov    %eax,0xc(%rsp)
  401669:	8b 44 24 0c          	mov    0xc(%rsp),%eax
  40166d:	69 c0 6e ba 00 00    	imul   $0xba6e,%eax,%eax
  401673:	89 44 24 0c          	mov    %eax,0xc(%rsp)
  401677:	8b 04 24             	mov    (%rsp),%eax
  40167a:	69 c0 c1 85 00 00    	imul   $0x85c1,%eax,%eax
  401680:	89 04 24             	mov    %eax,(%rsp)
  401683:	8b 44 24 08          	mov    0x8(%rsp),%eax
  401687:	69 c0 ec 63 00 00    	imul   $0x63ec,%eax,%eax
  40168d:	89 44 24 08          	mov    %eax,0x8(%rsp)
  401691:	8b 44 24 0c          	mov    0xc(%rsp),%eax
  401695:	69 c0 e5 c4 00 00    	imul   $0xc4e5,%eax,%eax
  40169b:	89 44 24 0c          	mov    %eax,0xc(%rsp)
  40169f:	8b 44 24 18          	mov    0x18(%rsp),%eax
  4016a3:	69 c0 d1 45 00 00    	imul   $0x45d1,%eax,%eax
  4016a9:	89 44 24 18          	mov    %eax,0x18(%rsp)
  4016ad:	8b 44 24 14          	mov    0x14(%rsp),%eax
  4016b1:	69 c0 dc 9f 00 00    	imul   $0x9fdc,%eax,%eax
  4016b7:	89 44 24 14          	mov    %eax,0x14(%rsp)
  4016bb:	8b 44 24 0c          	mov    0xc(%rsp),%eax
  4016bf:	69 c0 a3 7a 00 00    	imul   $0x7aa3,%eax,%eax
  4016c5:	89 44 24 0c          	mov    %eax,0xc(%rsp)
  4016c9:	8b 44 24 20          	mov    0x20(%rsp),%eax
  4016cd:	69 c0 76 eb 00 00    	imul   $0xeb76,%eax,%eax
  4016d3:	89 44 24 20          	mov    %eax,0x20(%rsp)
  4016d7:	8b 44 24 1c          	mov    0x1c(%rsp),%eax
  4016db:	69 c0 f8 df 00 00    	imul   $0xdff8,%eax,%eax
  4016e1:	89 44 24 1c          	mov    %eax,0x1c(%rsp)
  4016e5:	8b 44 24 04          	mov    0x4(%rsp),%eax
  4016e9:	69 c0 f7 c6 00 00    	imul   $0xc6f7,%eax,%eax
  4016ef:	89 44 24 04          	mov    %eax,0x4(%rsp)
  4016f3:	8b 44 24 20          	mov    0x20(%rsp),%eax
  4016f7:	69 c0 60 80 00 00    	imul   $0x8060,%eax,%eax
  4016fd:	89 44 24 20          	mov    %eax,0x20(%rsp)
  401701:	8b 04 24             	mov    (%rsp),%eax
  401704:	69 c0 c6 b5 00 00    	imul   $0xb5c6,%eax,%eax
  40170a:	89 04 24             	mov    %eax,(%rsp)
  40170d:	8b 44 24 10          	mov    0x10(%rsp),%eax
  401711:	69 c0 77 42 00 00    	imul   $0x4277,%eax,%eax
  401717:	89 44 24 10          	mov    %eax,0x10(%rsp)
  40171b:	8b 44 24 18          	mov    0x18(%rsp),%eax
  40171f:	69 c0 df 14 00 00    	imul   $0x14df,%eax,%eax
  401725:	89 44 24 18          	mov    %eax,0x18(%rsp)
  401729:	8b 44 24 04          	mov    0x4(%rsp),%eax
  40172d:	69 c0 c3 7a 00 00    	imul   $0x7ac3,%eax,%eax
  401733:	89 44 24 04          	mov    %eax,0x4(%rsp)
  401737:	8b 44 24 0c          	mov    0xc(%rsp),%eax
  40173b:	69 c0 f1 54 00 00    	imul   $0x54f1,%eax,%eax
  401741:	89 44 24 0c          	mov    %eax,0xc(%rsp)
  401745:	8b 44 24 10          	mov    0x10(%rsp),%eax
  401749:	69 c0 1e df 00 00    	imul   $0xdf1e,%eax,%eax
  40174f:	89 44 24 10          	mov    %eax,0x10(%rsp)
  401753:	8b 44 24 20          	mov    0x20(%rsp),%eax
  401757:	69 c0 9d 90 00 00    	imul   $0x909d,%eax,%eax
  40175d:	89 44 24 20          	mov    %eax,0x20(%rsp)
  401761:	8b 44 24 08          	mov    0x8(%rsp),%eax
  401765:	69 c0 9c 68 00 00    	imul   $0x689c,%eax,%eax
  40176b:	89 44 24 08          	mov    %eax,0x8(%rsp)
  40176f:	8b 44 24 20          	mov    0x20(%rsp),%eax
  401773:	69 c0 e5 2c 00 00    	imul   $0x2ce5,%eax,%eax
  401779:	89 44 24 20          	mov    %eax,0x20(%rsp)
  40177d:	8b 44 24 24          	mov    0x24(%rsp),%eax
  401781:	69 c0 b3 50 00 00    	imul   $0x50b3,%eax,%eax
  401787:	89 44 24 24          	mov    %eax,0x24(%rsp)
  40178b:	8b 44 24 18          	mov    0x18(%rsp),%eax
  40178f:	69 c0 f5 77 00 00    	imul   $0x77f5,%eax,%eax
  401795:	89 44 24 18          	mov    %eax,0x18(%rsp)
  401799:	8b 44 24 1c          	mov    0x1c(%rsp),%eax
  40179d:	69 c0 47 42 00 00    	imul   $0x4247,%eax,%eax
  4017a3:	89 44 24 1c          	mov    %eax,0x1c(%rsp)
  4017a7:	8b 44 24 0c          	mov    0xc(%rsp),%eax
  4017ab:	69 c0 6e e7 00 00    	imul   $0xe76e,%eax,%eax
  4017b1:	89 44 24 0c          	mov    %eax,0xc(%rsp)
  4017b5:	8b 44 24 14          	mov    0x14(%rsp),%eax
  4017b9:	69 c0 54 fe 00 00    	imul   $0xfe54,%eax,%eax
  4017bf:	89 44 24 14          	mov    %eax,0x14(%rsp)
  4017c3:	8b 44 24 10          	mov    0x10(%rsp),%eax
  4017c7:	69 c0 90 3f 00 00    	imul   $0x3f90,%eax,%eax
  4017cd:	89 44 24 10          	mov    %eax,0x10(%rsp)
  4017d1:	8b 44 24 04          	mov    0x4(%rsp),%eax
  4017d5:	69 c0 8e 4c 00 00    	imul   $0x4c8e,%eax,%eax
  4017db:	89 44 24 04          	mov    %eax,0x4(%rsp)
  4017df:	8b 44 24 0c          	mov    0xc(%rsp),%eax
  4017e3:	69 c0 c8 f8 00 00    	imul   $0xf8c8,%eax,%eax
  4017e9:	89 44 24 0c          	mov    %eax,0xc(%rsp)
  4017ed:	8b 44 24 20          	mov    0x20(%rsp),%eax
  4017f1:	69 c0 71 f2 00 00    	imul   $0xf271,%eax,%eax
  4017f7:	89 44 24 20          	mov    %eax,0x20(%rsp)
  4017fb:	8b 44 24 10          	mov    0x10(%rsp),%eax
  4017ff:	69 c0 23 1f 00 00    	imul   $0x1f23,%eax,%eax
  401805:	89 44 24 10          	mov    %eax,0x10(%rsp)
  401809:	8b 44 24 0c          	mov    0xc(%rsp),%eax
  40180d:	69 c0 a5 6c 00 00    	imul   $0x6ca5,%eax,%eax
  401813:	89 44 24 0c          	mov    %eax,0xc(%rsp)
  401817:	8b 44 24 18          	mov    0x18(%rsp),%eax
  40181b:	69 c0 65 a2 00 00    	imul   $0xa265,%eax,%eax
  401821:	89 44 24 18          	mov    %eax,0x18(%rsp)
  401825:	8b 44 24 08          	mov    0x8(%rsp),%eax
  401829:	69 c0 c7 4e 00 00    	imul   $0x4ec7,%eax,%eax
  40182f:	89 44 24 08          	mov    %eax,0x8(%rsp)
  401833:	8b 44 24 18          	mov    0x18(%rsp),%eax
  401837:	69 c0 ce 8e 00 00    	imul   $0x8ece,%eax,%eax
  40183d:	89 44 24 18          	mov    %eax,0x18(%rsp)
  401841:	8b 04 24             	mov    (%rsp),%eax
  401844:	69 c0 85 88 00 00    	imul   $0x8885,%eax,%eax
  40184a:	89 04 24             	mov    %eax,(%rsp)
  40184d:	8b 44 24 20          	mov    0x20(%rsp),%eax
  401851:	69 c0 d2 65 00 00    	imul   $0x65d2,%eax,%eax
  401857:	89 44 24 20          	mov    %eax,0x20(%rsp)
  40185b:	8b 44 24 04          	mov    0x4(%rsp),%eax
  40185f:	69 c0 75 88 00 00    	imul   $0x8875,%eax,%eax
  401865:	89 44 24 04          	mov    %eax,0x4(%rsp)
  401869:	8b 44 24 18          	mov    0x18(%rsp),%eax
  40186d:	69 c0 8e a4 00 00    	imul   $0xa48e,%eax,%eax
  401873:	89 44 24 18          	mov    %eax,0x18(%rsp)
  401877:	8b 44 24 20          	mov    0x20(%rsp),%eax
  40187b:	69 c0 32 41 00 00    	imul   $0x4132,%eax,%eax
  401881:	89 44 24 20          	mov    %eax,0x20(%rsp)
  401885:	8b 44 24 18          	mov    0x18(%rsp),%eax
  401889:	69 c0 fb ec 00 00    	imul   $0xecfb,%eax,%eax
  40188f:	89 44 24 18          	mov    %eax,0x18(%rsp)
  401893:	8b 44 24 18          	mov    0x18(%rsp),%eax
  401897:	69 c0 61 3a 00 00    	imul   $0x3a61,%eax,%eax
  40189d:	89 44 24 18          	mov    %eax,0x18(%rsp)
  4018a1:	8b 44 24 04          	mov    0x4(%rsp),%eax
  4018a5:	69 c0 3a be 00 00    	imul   $0xbe3a,%eax,%eax
  4018ab:	89 44 24 04          	mov    %eax,0x4(%rsp)
  4018af:	8b 44 24 1c          	mov    0x1c(%rsp),%eax
  4018b3:	69 c0 e3 21 00 00    	imul   $0x21e3,%eax,%eax
  4018b9:	89 44 24 1c          	mov    %eax,0x1c(%rsp)
  4018bd:	8b 44 24 08          	mov    0x8(%rsp),%eax
  4018c1:	69 c0 f5 15 00 00    	imul   $0x15f5,%eax,%eax
  4018c7:	89 44 24 08          	mov    %eax,0x8(%rsp)
  4018cb:	8b 44 24 20          	mov    0x20(%rsp),%eax
  4018cf:	69 c0 ab c4 00 00    	imul   $0xc4ab,%eax,%eax
  4018d5:	89 44 24 20          	mov    %eax,0x20(%rsp)
  4018d9:	8b 44 24 10          	mov    0x10(%rsp),%eax
  4018dd:	69 c0 89 81 00 00    	imul   $0x8189,%eax,%eax
  4018e3:	89 44 24 10          	mov    %eax,0x10(%rsp)
  4018e7:	8b 44 24 20          	mov    0x20(%rsp),%eax
  4018eb:	69 c0 2d a9 00 00    	imul   $0xa92d,%eax,%eax
  4018f1:	89 44 24 20          	mov    %eax,0x20(%rsp)
  4018f5:	8b 44 24 0c          	mov    0xc(%rsp),%eax
  4018f9:	69 c0 14 7d 00 00    	imul   $0x7d14,%eax,%eax
  4018ff:	89 44 24 0c          	mov    %eax,0xc(%rsp)
  401903:	8b 44 24 1c          	mov    0x1c(%rsp),%eax
  401907:	69 c0 f1 56 00 00    	imul   $0x56f1,%eax,%eax
  40190d:	89 44 24 1c          	mov    %eax,0x1c(%rsp)
  401911:	8b 44 24 20          	mov    0x20(%rsp),%eax
  401915:	69 c0 59 af 00 00    	imul   $0xaf59,%eax,%eax
  40191b:	89 44 24 20          	mov    %eax,0x20(%rsp)
  40191f:	8b 44 24 24          	mov    0x24(%rsp),%eax
  401923:	69 c0 97 c7 00 00    	imul   $0xc797,%eax,%eax
  401929:	89 44 24 24          	mov    %eax,0x24(%rsp)
  40192d:	8b 04 24             	mov    (%rsp),%eax
  401930:	69 c0 ae b8 00 00    	imul   $0xb8ae,%eax,%eax
  401936:	89 04 24             	mov    %eax,(%rsp)
  401939:	8b 44 24 08          	mov    0x8(%rsp),%eax
  40193d:	69 c0 f2 f2 00 00    	imul   $0xf2f2,%eax,%eax
  401943:	89 44 24 08          	mov    %eax,0x8(%rsp)
  401947:	8b 44 24 08          	mov    0x8(%rsp),%eax
  40194b:	69 c0 c9 1a 00 00    	imul   $0x1ac9,%eax,%eax
  401951:	89 44 24 08          	mov    %eax,0x8(%rsp)
  401955:	8b 44 24 20          	mov    0x20(%rsp),%eax
  401959:	69 c0 38 e9 00 00    	imul   $0xe938,%eax,%eax
  40195f:	89 44 24 20          	mov    %eax,0x20(%rsp)
  401963:	8b 44 24 1c          	mov    0x1c(%rsp),%eax
  401967:	69 c0 aa 73 00 00    	imul   $0x73aa,%eax,%eax
  40196d:	89 44 24 1c          	mov    %eax,0x1c(%rsp)
  401971:	8b 04 24             	mov    (%rsp),%eax
  401974:	69 c0 50 34 00 00    	imul   $0x3450,%eax,%eax
  40197a:	89 04 24             	mov    %eax,(%rsp)
  40197d:	8b 44 24 0c          	mov    0xc(%rsp),%eax
  401981:	69 c0 89 aa 00 00    	imul   $0xaa89,%eax,%eax
  401987:	89 44 24 0c          	mov    %eax,0xc(%rsp)
  40198b:	8b 44 24 20          	mov    0x20(%rsp),%eax
  40198f:	69 c0 e7 e8 00 00    	imul   $0xe8e7,%eax,%eax
  401995:	89 44 24 20          	mov    %eax,0x20(%rsp)
  401999:	8b 44 24 08          	mov    0x8(%rsp),%eax
  40199d:	69 c0 88 6a 00 00    	imul   $0x6a88,%eax,%eax
  4019a3:	89 44 24 08          	mov    %eax,0x8(%rsp)
  4019a7:	8b 44 24 1c          	mov    0x1c(%rsp),%eax
  4019ab:	69 c0 96 f5 00 00    	imul   $0xf596,%eax,%eax
  4019b1:	89 44 24 1c          	mov    %eax,0x1c(%rsp)
  4019b5:	ba 00 00 00 00       	mov    $0x0,%edx
  4019ba:	b8 00 00 00 00       	mov    $0x0,%eax
  4019bf:	eb 0a                	jmp    4019cb <scramble+0x559>
  4019c1:	89 d1                	mov    %edx,%ecx
  4019c3:	8b 0c 8c             	mov    (%rsp,%rcx,4),%ecx
  4019c6:	01 c8                	add    %ecx,%eax
  4019c8:	83 c2 01             	add    $0x1,%edx
  4019cb:	83 fa 09             	cmp    $0x9,%edx
  4019ce:	76 f1                	jbe    4019c1 <scramble+0x54f>
  4019d0:	48 8b 74 24 28       	mov    0x28(%rsp),%rsi
  4019d5:	64 48 33 34 25 28 00 	xor    %fs:0x28,%rsi
  4019dc:	00 00 
  4019de:	75 05                	jne    4019e5 <scramble+0x573>
  4019e0:	48 83 c4 38          	add    $0x38,%rsp
  4019e4:	c3                   	retq   
  4019e5:	e8 1b 09 00 00       	callq  402305 <__stack_chk_fail>

00000000004019ea <getbuf>:
  4019ea:	48 83 ec 28          	sub    $0x28,%rsp
  4019ee:	48 89 e7             	mov    %rsp,%rdi
  4019f1:	e8 55 04 00 00       	callq  401e4b <Gets>
  4019f6:	b8 01 00 00 00       	mov    $0x1,%eax
  4019fb:	48 83 c4 28          	add    $0x28,%rsp
  4019ff:	c3                   	retq   

0000000000401a00 <touch1>:
  401a00:	48 83 ec 08          	sub    $0x8,%rsp
  401a04:	c7 05 0e 3b 20 00 01 	movl   $0x1,0x203b0e(%rip)        # 60551c <vlevel>
  401a0b:	00 00 00 
  401a0e:	48 8d 3d 11 1c 00 00 	lea    0x1c11(%rip),%rdi        # 403626 <_IO_stdin_used+0x316>
  401a15:	e8 26 f3 ff ff       	callq  400d40 <puts@plt>
  401a1a:	bf 01 00 00 00       	mov    $0x1,%edi
  401a1f:	e8 8f 06 00 00       	callq  4020b3 <validate>
  401a24:	bf 00 00 00 00       	mov    $0x0,%edi
  401a29:	e8 82 f4 ff ff       	callq  400eb0 <exit@plt>

0000000000401a2e <touch2>:
  401a2e:	48 83 ec 08          	sub    $0x8,%rsp
  401a32:	89 fa                	mov    %edi,%edx
  401a34:	c7 05 de 3a 20 00 02 	movl   $0x2,0x203ade(%rip)        # 60551c <vlevel>
  401a3b:	00 00 00 
  401a3e:	39 3d e0 3a 20 00    	cmp    %edi,0x203ae0(%rip)        # 605524 <cookie>
  401a44:	74 2a                	je     401a70 <touch2+0x42>
  401a46:	48 8d 35 23 1c 00 00 	lea    0x1c23(%rip),%rsi        # 403670 <_IO_stdin_used+0x360>
  401a4d:	bf 01 00 00 00       	mov    $0x1,%edi
  401a52:	b8 00 00 00 00       	mov    $0x0,%eax
  401a57:	e8 04 f4 ff ff       	callq  400e60 <__printf_chk@plt>
  401a5c:	bf 02 00 00 00       	mov    $0x2,%edi
  401a61:	e8 24 07 00 00       	callq  40218a <fail>
  401a66:	bf 00 00 00 00       	mov    $0x0,%edi
  401a6b:	e8 40 f4 ff ff       	callq  400eb0 <exit@plt>
  401a70:	48 8d 35 d1 1b 00 00 	lea    0x1bd1(%rip),%rsi        # 403648 <_IO_stdin_used+0x338>
  401a77:	bf 01 00 00 00       	mov    $0x1,%edi
  401a7c:	b8 00 00 00 00       	mov    $0x0,%eax
  401a81:	e8 da f3 ff ff       	callq  400e60 <__printf_chk@plt>
  401a86:	bf 02 00 00 00       	mov    $0x2,%edi
  401a8b:	e8 23 06 00 00       	callq  4020b3 <validate>
  401a90:	eb d4                	jmp    401a66 <touch2+0x38>

0000000000401a92 <hexmatch>:
  401a92:	41 54                	push   %r12
  401a94:	55                   	push   %rbp
  401a95:	53                   	push   %rbx
  401a96:	48 83 c4 80          	add    $0xffffffffffffff80,%rsp
  401a9a:	89 fd                	mov    %edi,%ebp
  401a9c:	48 89 f3             	mov    %rsi,%rbx
  401a9f:	64 48 8b 04 25 28 00 	mov    %fs:0x28,%rax
  401aa6:	00 00 
  401aa8:	48 89 44 24 78       	mov    %rax,0x78(%rsp)
  401aad:	31 c0                	xor    %eax,%eax
  401aaf:	e8 6c f3 ff ff       	callq  400e20 <random@plt>
  401ab4:	48 89 c1             	mov    %rax,%rcx
  401ab7:	48 ba 0b d7 a3 70 3d 	movabs $0xa3d70a3d70a3d70b,%rdx
  401abe:	0a d7 a3 
  401ac1:	48 f7 ea             	imul   %rdx
  401ac4:	48 01 ca             	add    %rcx,%rdx
  401ac7:	48 c1 fa 06          	sar    $0x6,%rdx
  401acb:	48 89 c8             	mov    %rcx,%rax
  401ace:	48 c1 f8 3f          	sar    $0x3f,%rax
  401ad2:	48 29 c2             	sub    %rax,%rdx
  401ad5:	48 8d 04 92          	lea    (%rdx,%rdx,4),%rax
  401ad9:	48 8d 14 80          	lea    (%rax,%rax,4),%rdx
  401add:	48 8d 04 95 00 00 00 	lea    0x0(,%rdx,4),%rax
  401ae4:	00 
  401ae5:	48 29 c1             	sub    %rax,%rcx
  401ae8:	4c 8d 24 0c          	lea    (%rsp,%rcx,1),%r12
  401aec:	41 89 e8             	mov    %ebp,%r8d
  401aef:	48 8d 0d 4d 1b 00 00 	lea    0x1b4d(%rip),%rcx        # 403643 <_IO_stdin_used+0x333>
  401af6:	48 c7 c2 ff ff ff ff 	mov    $0xffffffffffffffff,%rdx
  401afd:	be 01 00 00 00       	mov    $0x1,%esi
  401b02:	4c 89 e7             	mov    %r12,%rdi
  401b05:	b8 00 00 00 00       	mov    $0x0,%eax
  401b0a:	e8 d1 f3 ff ff       	callq  400ee0 <__sprintf_chk@plt>
  401b0f:	ba 09 00 00 00       	mov    $0x9,%edx
  401b14:	4c 89 e6             	mov    %r12,%rsi
  401b17:	48 89 df             	mov    %rbx,%rdi
  401b1a:	e8 01 f2 ff ff       	callq  400d20 <strncmp@plt>
  401b1f:	85 c0                	test   %eax,%eax
  401b21:	0f 94 c0             	sete   %al
  401b24:	48 8b 5c 24 78       	mov    0x78(%rsp),%rbx
  401b29:	64 48 33 1c 25 28 00 	xor    %fs:0x28,%rbx
  401b30:	00 00 
  401b32:	75 0c                	jne    401b40 <hexmatch+0xae>
  401b34:	0f b6 c0             	movzbl %al,%eax
  401b37:	48 83 ec 80          	sub    $0xffffffffffffff80,%rsp
  401b3b:	5b                   	pop    %rbx
  401b3c:	5d                   	pop    %rbp
  401b3d:	41 5c                	pop    %r12
  401b3f:	c3                   	retq   
  401b40:	e8 c0 07 00 00       	callq  402305 <__stack_chk_fail>

0000000000401b45 <touch3>:
  401b45:	53                   	push   %rbx
  401b46:	48 89 fb             	mov    %rdi,%rbx
  401b49:	c7 05 c9 39 20 00 03 	movl   $0x3,0x2039c9(%rip)        # 60551c <vlevel>
  401b50:	00 00 00 
  401b53:	48 89 fe             	mov    %rdi,%rsi
  401b56:	8b 3d c8 39 20 00    	mov    0x2039c8(%rip),%edi        # 605524 <cookie>
  401b5c:	e8 31 ff ff ff       	callq  401a92 <hexmatch>
  401b61:	85 c0                	test   %eax,%eax
  401b63:	74 2d                	je     401b92 <touch3+0x4d>
  401b65:	48 89 da             	mov    %rbx,%rdx
  401b68:	48 8d 35 29 1b 00 00 	lea    0x1b29(%rip),%rsi        # 403698 <_IO_stdin_used+0x388>
  401b6f:	bf 01 00 00 00       	mov    $0x1,%edi
  401b74:	b8 00 00 00 00       	mov    $0x0,%eax
  401b79:	e8 e2 f2 ff ff       	callq  400e60 <__printf_chk@plt>
  401b7e:	bf 03 00 00 00       	mov    $0x3,%edi
  401b83:	e8 2b 05 00 00       	callq  4020b3 <validate>
  401b88:	bf 00 00 00 00       	mov    $0x0,%edi
  401b8d:	e8 1e f3 ff ff       	callq  400eb0 <exit@plt>
  401b92:	48 89 da             	mov    %rbx,%rdx
  401b95:	48 8d 35 24 1b 00 00 	lea    0x1b24(%rip),%rsi        # 4036c0 <_IO_stdin_used+0x3b0>
  401b9c:	bf 01 00 00 00       	mov    $0x1,%edi
  401ba1:	b8 00 00 00 00       	mov    $0x0,%eax
  401ba6:	e8 b5 f2 ff ff       	callq  400e60 <__printf_chk@plt>
  401bab:	bf 03 00 00 00       	mov    $0x3,%edi
  401bb0:	e8 d5 05 00 00       	callq  40218a <fail>
  401bb5:	eb d1                	jmp    401b88 <touch3+0x43>

0000000000401bb7 <test>:
  401bb7:	48 83 ec 08          	sub    $0x8,%rsp
  401bbb:	b8 00 00 00 00       	mov    $0x0,%eax
  401bc0:	e8 25 fe ff ff       	callq  4019ea <getbuf>
  401bc5:	89 c2                	mov    %eax,%edx
  401bc7:	48 8d 35 1a 1b 00 00 	lea    0x1b1a(%rip),%rsi        # 4036e8 <_IO_stdin_used+0x3d8>
  401bce:	bf 01 00 00 00       	mov    $0x1,%edi
  401bd3:	b8 00 00 00 00       	mov    $0x0,%eax
  401bd8:	e8 83 f2 ff ff       	callq  400e60 <__printf_chk@plt>
  401bdd:	48 83 c4 08          	add    $0x8,%rsp
  401be1:	c3                   	retq   

0000000000401be2 <test2>:
  401be2:	48 83 ec 08          	sub    $0x8,%rsp
  401be6:	b8 00 00 00 00       	mov    $0x0,%eax
  401beb:	e8 1d 00 00 00       	callq  401c0d <getbuf_withcanary>
  401bf0:	89 c2                	mov    %eax,%edx
  401bf2:	48 8d 35 17 1b 00 00 	lea    0x1b17(%rip),%rsi        # 403710 <_IO_stdin_used+0x400>
  401bf9:	bf 01 00 00 00       	mov    $0x1,%edi
  401bfe:	b8 00 00 00 00       	mov    $0x0,%eax
  401c03:	e8 58 f2 ff ff       	callq  400e60 <__printf_chk@plt>
  401c08:	48 83 c4 08          	add    $0x8,%rsp
  401c0c:	c3                   	retq   

0000000000401c0d <getbuf_withcanary>:
  401c0d:	55                   	push   %rbp
  401c0e:	48 89 e5             	mov    %rsp,%rbp
  401c11:	48 81 ec 20 01 00 00 	sub    $0x120,%rsp
  401c18:	64 48 8b 04 25 28 00 	mov    %fs:0x28,%rax
  401c1f:	00 00 
  401c21:	48 89 45 f8          	mov    %rax,-0x8(%rbp)
  401c25:	31 c0                	xor    %eax,%eax
  401c27:	c7 45 e4 00 00 00 00 	movl   $0x0,-0x1c(%rbp)
  401c2e:	48 8d 85 60 ff ff ff 	lea    -0xa0(%rbp),%rax
  401c35:	48 89 c7             	mov    %rax,%rdi
  401c38:	e8 0e 02 00 00       	callq  401e4b <Gets>
  401c3d:	8b 45 e4             	mov    -0x1c(%rbp),%eax
  401c40:	48 98                	cltq   
  401c42:	48 8d 95 e0 fe ff ff 	lea    -0x120(%rbp),%rdx
  401c49:	48 8d 0c 02          	lea    (%rdx,%rax,1),%rcx
  401c4d:	48 8d 85 60 ff ff ff 	lea    -0xa0(%rbp),%rax
  401c54:	ba 80 00 00 00       	mov    $0x80,%edx
  401c59:	48 89 c6             	mov    %rax,%rsi
  401c5c:	48 89 cf             	mov    %rcx,%rdi
  401c5f:	e8 9c f1 ff ff       	callq  400e00 <memcpy@plt>
  401c64:	b8 01 00 00 00       	mov    $0x1,%eax
  401c69:	48 8b 75 f8          	mov    -0x8(%rbp),%rsi
  401c6d:	64 48 33 34 25 28 00 	xor    %fs:0x28,%rsi
  401c74:	00 00 
  401c76:	74 05                	je     401c7d <getbuf_withcanary+0x70>
  401c78:	e8 88 06 00 00       	callq  402305 <__stack_chk_fail>
  401c7d:	c9                   	leaveq 
  401c7e:	c3                   	retq   

0000000000401c7f <start_farm>:
  401c7f:	b8 01 00 00 00       	mov    $0x1,%eax
  401c84:	c3                   	retq   

0000000000401c85 <addval_422>:
  401c85:	8d 87 94 e5 c4 50    	lea    0x50c4e594(%rdi),%eax
  401c8b:	c3                   	retq   

0000000000401c8c <setval_232>:
  401c8c:	c7 07 f1 5f 58 90    	movl   $0x90585ff1,(%rdi)
  401c92:	c3                   	retq   

0000000000401c93 <addval_308>:
  401c93:	8d 87 48 89 c7 c3    	lea    -0x3c3876b8(%rdi),%eax
  401c99:	c3                   	retq   

0000000000401c9a <getval_440>:
  401c9a:	b8 48 89 c7 c3       	mov    $0xc3c78948,%eax
  401c9f:	c3                   	retq   

0000000000401ca0 <getval_101>:
  401ca0:	b8 48 89 c7 c1       	mov    $0xc1c78948,%eax
  401ca5:	c3                   	retq   

0000000000401ca6 <addval_481>:
  401ca6:	8d 87 17 58 89 c7    	lea    -0x3876a7e9(%rdi),%eax
  401cac:	c3                   	retq   

0000000000401cad <addval_212>:
  401cad:	8d 87 18 c5 95 48    	lea    0x4895c518(%rdi),%eax
  401cb3:	c3                   	retq   

0000000000401cb4 <addval_437>:
  401cb4:	8d 87 58 90 c3 aa    	lea    -0x553c6fa8(%rdi),%eax
  401cba:	c3                   	retq   

0000000000401cbb <mid_farm>:
  401cbb:	b8 01 00 00 00       	mov    $0x1,%eax
  401cc0:	c3                   	retq   

0000000000401cc1 <add_xy>:
  401cc1:	48 8d 04 37          	lea    (%rdi,%rsi,1),%rax
  401cc5:	c3                   	retq   

0000000000401cc6 <addval_133>:
  401cc6:	8d 87 1b 99 ca 90    	lea    -0x6f3566e5(%rdi),%eax
  401ccc:	c3                   	retq   

0000000000401ccd <addval_168>:
  401ccd:	8d 87 09 ca 84 db    	lea    -0x247b35f7(%rdi),%eax
  401cd3:	c3                   	retq   

0000000000401cd4 <setval_331>:
  401cd4:	c7 07 89 d6 28 c9    	movl   $0xc928d689,(%rdi)
  401cda:	c3                   	retq   

0000000000401cdb <getval_143>:
  401cdb:	b8 e6 89 c1 90       	mov    $0x90c189e6,%eax
  401ce0:	c3                   	retq   

0000000000401ce1 <addval_435>:
  401ce1:	8d 87 8b c1 20 c9    	lea    -0x36df3e75(%rdi),%eax
  401ce7:	c3                   	retq   

0000000000401ce8 <getval_283>:
  401ce8:	b8 89 c1 c4 db       	mov    $0xdbc4c189,%eax
  401ced:	c3                   	retq   

0000000000401cee <setval_241>:
  401cee:	c7 07 cc 89 ca c1    	movl   $0xc1ca89cc,(%rdi)
  401cf4:	c3                   	retq   

0000000000401cf5 <addval_330>:
  401cf5:	8d 87 89 d6 20 db    	lea    -0x24df2977(%rdi),%eax
  401cfb:	c3                   	retq   

0000000000401cfc <setval_261>:
  401cfc:	c7 07 88 d6 90 c3    	movl   $0xc390d688,(%rdi)
  401d02:	c3                   	retq   

0000000000401d03 <setval_404>:
  401d03:	c7 07 30 88 c1 90    	movl   $0x90c18830,(%rdi)
  401d09:	c3                   	retq   

0000000000401d0a <addval_345>:
  401d0a:	8d 87 48 99 e0 90    	lea    -0x6f1f66b8(%rdi),%eax
  401d10:	c3                   	retq   

0000000000401d11 <addval_487>:
  401d11:	8d 87 09 c1 84 c0    	lea    -0x3f7b3ef7(%rdi),%eax
  401d17:	c3                   	retq   

0000000000401d18 <addval_343>:
  401d18:	8d 87 89 d6 a4 c9    	lea    -0x365b2977(%rdi),%eax
  401d1e:	c3                   	retq   

0000000000401d1f <setval_491>:
  401d1f:	c7 07 48 c9 e0 c3    	movl   $0xc3e0c948,(%rdi)
  401d25:	c3                   	retq   

0000000000401d26 <setval_273>:
  401d26:	c7 07 89 ca 38 d2    	movl   $0xd238ca89,(%rdi)
  401d2c:	c3                   	retq   

0000000000401d2d <setval_439>:
  401d2d:	c7 07 48 89 e0 90    	movl   $0x90e08948,(%rdi)
  401d33:	c3                   	retq   

0000000000401d34 <addval_193>:
  401d34:	8d 87 89 d6 18 db    	lea    -0x24e72977(%rdi),%eax
  401d3a:	c3                   	retq   

0000000000401d3b <setval_256>:
  401d3b:	c7 07 89 c1 08 db    	movl   $0xdb08c189,(%rdi)
  401d41:	c3                   	retq   

0000000000401d42 <getval_286>:
  401d42:	b8 81 d6 90 c3       	mov    $0xc390d681,%eax
  401d47:	c3                   	retq   

0000000000401d48 <getval_122>:
  401d48:	b8 48 89 e0 c7       	mov    $0xc7e08948,%eax
  401d4d:	c3                   	retq   

0000000000401d4e <addval_129>:
  401d4e:	8d 87 48 99 e0 c3    	lea    -0x3c1f66b8(%rdi),%eax
  401d54:	c3                   	retq   

0000000000401d55 <setval_222>:
  401d55:	c7 07 89 c1 28 c0    	movl   $0xc028c189,(%rdi)
  401d5b:	c3                   	retq   

0000000000401d5c <getval_219>:
  401d5c:	b8 89 d6 91 90       	mov    $0x9091d689,%eax
  401d61:	c3                   	retq   

0000000000401d62 <addval_292>:
  401d62:	8d 87 f9 4c 89 e0    	lea    -0x1f76b307(%rdi),%eax
  401d68:	c3                   	retq   

0000000000401d69 <getval_486>:
  401d69:	b8 52 48 89 e0       	mov    $0xe0894852,%eax
  401d6e:	c3                   	retq   

0000000000401d6f <getval_335>:
  401d6f:	b8 89 ca 94 d2       	mov    $0xd294ca89,%eax
  401d74:	c3                   	retq   

0000000000401d75 <getval_223>:
  401d75:	b8 89 ca 20 c0       	mov    $0xc020ca89,%eax
  401d7a:	c3                   	retq   

0000000000401d7b <getval_144>:
  401d7b:	b8 8b c1 08 db       	mov    $0xdb08c18b,%eax
  401d80:	c3                   	retq   

0000000000401d81 <setval_386>:
  401d81:	c7 07 89 ca 18 d2    	movl   $0xd218ca89,(%rdi)
  401d87:	c3                   	retq   

0000000000401d88 <addval_339>:
  401d88:	8d 87 48 89 e0 94    	lea    -0x6b1f76b8(%rdi),%eax
  401d8e:	c3                   	retq   

0000000000401d8f <setval_312>:
  401d8f:	c7 07 09 ca 08 db    	movl   $0xdb08ca09,(%rdi)
  401d95:	c3                   	retq   

0000000000401d96 <setval_284>:
  401d96:	c7 07 89 d6 38 c9    	movl   $0xc938d689,(%rdi)
  401d9c:	c3                   	retq   

0000000000401d9d <end_farm>:
  401d9d:	b8 01 00 00 00       	mov    $0x1,%eax
  401da2:	c3                   	retq   

0000000000401da3 <save_char>:
  401da3:	8b 05 9b 43 20 00    	mov    0x20439b(%rip),%eax        # 606144 <gets_cnt>
  401da9:	3d ff 03 00 00       	cmp    $0x3ff,%eax
  401dae:	7f 4a                	jg     401dfa <save_char+0x57>
  401db0:	89 f9                	mov    %edi,%ecx
  401db2:	c0 e9 04             	shr    $0x4,%cl
  401db5:	8d 14 40             	lea    (%rax,%rax,2),%edx
  401db8:	4c 8d 05 c1 1c 00 00 	lea    0x1cc1(%rip),%r8        # 403a80 <trans_char>
  401dbf:	83 e1 0f             	and    $0xf,%ecx
  401dc2:	45 0f b6 0c 08       	movzbl (%r8,%rcx,1),%r9d
  401dc7:	48 8d 0d 72 37 20 00 	lea    0x203772(%rip),%rcx        # 605540 <gets_buf>
  401dce:	48 63 f2             	movslq %edx,%rsi
  401dd1:	44 88 0c 31          	mov    %r9b,(%rcx,%rsi,1)
  401dd5:	8d 72 01             	lea    0x1(%rdx),%esi
  401dd8:	83 e7 0f             	and    $0xf,%edi
  401ddb:	41 0f b6 3c 38       	movzbl (%r8,%rdi,1),%edi
  401de0:	48 63 f6             	movslq %esi,%rsi
  401de3:	40 88 3c 31          	mov    %dil,(%rcx,%rsi,1)
  401de7:	83 c2 02             	add    $0x2,%edx
  401dea:	48 63 d2             	movslq %edx,%rdx
  401ded:	c6 04 11 20          	movb   $0x20,(%rcx,%rdx,1)
  401df1:	83 c0 01             	add    $0x1,%eax
  401df4:	89 05 4a 43 20 00    	mov    %eax,0x20434a(%rip)        # 606144 <gets_cnt>
  401dfa:	f3 c3                	repz retq 

0000000000401dfc <save_term>:
  401dfc:	8b 05 42 43 20 00    	mov    0x204342(%rip),%eax        # 606144 <gets_cnt>
  401e02:	8d 04 40             	lea    (%rax,%rax,2),%eax
  401e05:	48 98                	cltq   
  401e07:	48 8d 15 32 37 20 00 	lea    0x203732(%rip),%rdx        # 605540 <gets_buf>
  401e0e:	c6 04 02 00          	movb   $0x0,(%rdx,%rax,1)
  401e12:	c3                   	retq   

0000000000401e13 <check_fail>:
  401e13:	48 83 ec 08          	sub    $0x8,%rsp
  401e17:	0f be 15 2a 43 20 00 	movsbl 0x20432a(%rip),%edx        # 606148 <target_prefix>
  401e1e:	4c 8d 05 1b 37 20 00 	lea    0x20371b(%rip),%r8        # 605540 <gets_buf>
  401e25:	8b 0d ed 36 20 00    	mov    0x2036ed(%rip),%ecx        # 605518 <check_level>
  401e2b:	48 8d 35 0c 19 00 00 	lea    0x190c(%rip),%rsi        # 40373e <_IO_stdin_used+0x42e>
  401e32:	bf 01 00 00 00       	mov    $0x1,%edi
  401e37:	b8 00 00 00 00       	mov    $0x0,%eax
  401e3c:	e8 1f f0 ff ff       	callq  400e60 <__printf_chk@plt>
  401e41:	bf 01 00 00 00       	mov    $0x1,%edi
  401e46:	e8 65 f0 ff ff       	callq  400eb0 <exit@plt>

0000000000401e4b <Gets>:
  401e4b:	41 54                	push   %r12
  401e4d:	55                   	push   %rbp
  401e4e:	53                   	push   %rbx
  401e4f:	49 89 fc             	mov    %rdi,%r12
  401e52:	c7 05 e8 42 20 00 00 	movl   $0x0,0x2042e8(%rip)        # 606144 <gets_cnt>
  401e59:	00 00 00 
  401e5c:	48 89 fb             	mov    %rdi,%rbx
  401e5f:	eb 11                	jmp    401e72 <Gets+0x27>
  401e61:	48 8d 6b 01          	lea    0x1(%rbx),%rbp
  401e65:	88 03                	mov    %al,(%rbx)
  401e67:	0f b6 f8             	movzbl %al,%edi
  401e6a:	e8 34 ff ff ff       	callq  401da3 <save_char>
  401e6f:	48 89 eb             	mov    %rbp,%rbx
  401e72:	48 8b 3d 97 36 20 00 	mov    0x203697(%rip),%rdi        # 605510 <infile>
  401e79:	e8 b2 ef ff ff       	callq  400e30 <_IO_getc@plt>
  401e7e:	83 f8 ff             	cmp    $0xffffffff,%eax
  401e81:	74 05                	je     401e88 <Gets+0x3d>
  401e83:	83 f8 0a             	cmp    $0xa,%eax
  401e86:	75 d9                	jne    401e61 <Gets+0x16>
  401e88:	c6 03 00             	movb   $0x0,(%rbx)
  401e8b:	b8 00 00 00 00       	mov    $0x0,%eax
  401e90:	e8 67 ff ff ff       	callq  401dfc <save_term>
  401e95:	4c 89 e0             	mov    %r12,%rax
  401e98:	5b                   	pop    %rbx
  401e99:	5d                   	pop    %rbp
  401e9a:	41 5c                	pop    %r12
  401e9c:	c3                   	retq   

0000000000401e9d <notify_server>:
  401e9d:	55                   	push   %rbp
  401e9e:	53                   	push   %rbx
  401e9f:	48 81 ec 18 40 00 00 	sub    $0x4018,%rsp
  401ea6:	64 48 8b 04 25 28 00 	mov    %fs:0x28,%rax
  401ead:	00 00 
  401eaf:	48 89 84 24 08 40 00 	mov    %rax,0x4008(%rsp)
  401eb6:	00 
  401eb7:	31 c0                	xor    %eax,%eax
  401eb9:	83 3d 68 36 20 00 00 	cmpl   $0x0,0x203668(%rip)        # 605528 <is_checker>
  401ec0:	0f 85 cb 01 00 00    	jne    402091 <notify_server+0x1f4>
  401ec6:	89 fb                	mov    %edi,%ebx
  401ec8:	8b 05 76 42 20 00    	mov    0x204276(%rip),%eax        # 606144 <gets_cnt>
  401ece:	83 c0 64             	add    $0x64,%eax
  401ed1:	3d 00 20 00 00       	cmp    $0x2000,%eax
  401ed6:	0f 8f bd 00 00 00    	jg     401f99 <notify_server+0xfc>
  401edc:	0f be 05 65 42 20 00 	movsbl 0x204265(%rip),%eax        # 606148 <target_prefix>
  401ee3:	83 3d be 35 20 00 00 	cmpl   $0x0,0x2035be(%rip)        # 6054a8 <notify>
  401eea:	0f 84 c9 00 00 00    	je     401fb9 <notify_server+0x11c>
  401ef0:	8b 15 2a 36 20 00    	mov    0x20362a(%rip),%edx        # 605520 <authkey>
  401ef6:	85 db                	test   %ebx,%ebx
  401ef8:	0f 84 c5 00 00 00    	je     401fc3 <notify_server+0x126>
  401efe:	48 8d 2d 4f 18 00 00 	lea    0x184f(%rip),%rbp        # 403754 <_IO_stdin_used+0x444>
  401f05:	48 89 e7             	mov    %rsp,%rdi
  401f08:	48 8d 0d 31 36 20 00 	lea    0x203631(%rip),%rcx        # 605540 <gets_buf>
  401f0f:	51                   	push   %rcx
  401f10:	56                   	push   %rsi
  401f11:	50                   	push   %rax
  401f12:	52                   	push   %rdx
  401f13:	49 89 e9             	mov    %rbp,%r9
  401f16:	44 8b 05 33 32 20 00 	mov    0x203233(%rip),%r8d        # 605150 <target_id>
  401f1d:	48 8d 0d 3a 18 00 00 	lea    0x183a(%rip),%rcx        # 40375e <_IO_stdin_used+0x44e>
  401f24:	ba 00 20 00 00       	mov    $0x2000,%edx
  401f29:	be 01 00 00 00       	mov    $0x1,%esi
  401f2e:	b8 00 00 00 00       	mov    $0x0,%eax
  401f33:	e8 a8 ef ff ff       	callq  400ee0 <__sprintf_chk@plt>
  401f38:	48 83 c4 20          	add    $0x20,%rsp
  401f3c:	83 3d 65 35 20 00 00 	cmpl   $0x0,0x203565(%rip)        # 6054a8 <notify>
  401f43:	0f 84 bf 00 00 00    	je     402008 <notify_server+0x16b>
  401f49:	48 89 e1             	mov    %rsp,%rcx
  401f4c:	4c 8d 8c 24 00 20 00 	lea    0x2000(%rsp),%r9
  401f53:	00 
  401f54:	41 b8 00 00 00 00    	mov    $0x0,%r8d
  401f5a:	48 8b 15 07 32 20 00 	mov    0x203207(%rip),%rdx        # 605168 <lab>
  401f61:	48 8b 35 08 32 20 00 	mov    0x203208(%rip),%rsi        # 605170 <course>
  401f68:	48 8b 3d f1 31 20 00 	mov    0x2031f1(%rip),%rdi        # 605160 <user_id>
  401f6f:	e8 4c 12 00 00       	callq  4031c0 <driver_post>
  401f74:	85 c0                	test   %eax,%eax
  401f76:	78 57                	js     401fcf <notify_server+0x132>
  401f78:	85 db                	test   %ebx,%ebx
  401f7a:	74 7b                	je     401ff7 <notify_server+0x15a>
  401f7c:	48 8d 3d 15 19 00 00 	lea    0x1915(%rip),%rdi        # 403898 <_IO_stdin_used+0x588>
  401f83:	e8 b8 ed ff ff       	callq  400d40 <puts@plt>
  401f88:	48 8d 3d f7 17 00 00 	lea    0x17f7(%rip),%rdi        # 403786 <_IO_stdin_used+0x476>
  401f8f:	e8 ac ed ff ff       	callq  400d40 <puts@plt>
  401f94:	e9 f8 00 00 00       	jmpq   402091 <notify_server+0x1f4>
  401f99:	48 8d 35 c8 18 00 00 	lea    0x18c8(%rip),%rsi        # 403868 <_IO_stdin_used+0x558>
  401fa0:	bf 01 00 00 00       	mov    $0x1,%edi
  401fa5:	b8 00 00 00 00       	mov    $0x0,%eax
  401faa:	e8 b1 ee ff ff       	callq  400e60 <__printf_chk@plt>
  401faf:	bf 01 00 00 00       	mov    $0x1,%edi
  401fb4:	e8 f7 ee ff ff       	callq  400eb0 <exit@plt>
  401fb9:	ba ff ff ff ff       	mov    $0xffffffff,%edx
  401fbe:	e9 33 ff ff ff       	jmpq   401ef6 <notify_server+0x59>
  401fc3:	48 8d 2d 8f 17 00 00 	lea    0x178f(%rip),%rbp        # 403759 <_IO_stdin_used+0x449>
  401fca:	e9 36 ff ff ff       	jmpq   401f05 <notify_server+0x68>
  401fcf:	48 8d 94 24 00 20 00 	lea    0x2000(%rsp),%rdx
  401fd6:	00 
  401fd7:	48 8d 35 9c 17 00 00 	lea    0x179c(%rip),%rsi        # 40377a <_IO_stdin_used+0x46a>
  401fde:	bf 01 00 00 00       	mov    $0x1,%edi
  401fe3:	b8 00 00 00 00       	mov    $0x0,%eax
  401fe8:	e8 73 ee ff ff       	callq  400e60 <__printf_chk@plt>
  401fed:	bf 01 00 00 00       	mov    $0x1,%edi
  401ff2:	e8 b9 ee ff ff       	callq  400eb0 <exit@plt>
  401ff7:	48 8d 3d 92 17 00 00 	lea    0x1792(%rip),%rdi        # 403790 <_IO_stdin_used+0x480>
  401ffe:	e8 3d ed ff ff       	callq  400d40 <puts@plt>
  402003:	e9 89 00 00 00       	jmpq   402091 <notify_server+0x1f4>
  402008:	48 89 ea             	mov    %rbp,%rdx
  40200b:	48 8d 35 be 18 00 00 	lea    0x18be(%rip),%rsi        # 4038d0 <_IO_stdin_used+0x5c0>
  402012:	bf 01 00 00 00       	mov    $0x1,%edi
  402017:	b8 00 00 00 00       	mov    $0x0,%eax
  40201c:	e8 3f ee ff ff       	callq  400e60 <__printf_chk@plt>
  402021:	48 8b 15 38 31 20 00 	mov    0x203138(%rip),%rdx        # 605160 <user_id>
  402028:	48 8d 35 68 17 00 00 	lea    0x1768(%rip),%rsi        # 403797 <_IO_stdin_used+0x487>
  40202f:	bf 01 00 00 00       	mov    $0x1,%edi
  402034:	b8 00 00 00 00       	mov    $0x0,%eax
  402039:	e8 22 ee ff ff       	callq  400e60 <__printf_chk@plt>
  40203e:	48 8b 15 2b 31 20 00 	mov    0x20312b(%rip),%rdx        # 605170 <course>
  402045:	48 8d 35 58 17 00 00 	lea    0x1758(%rip),%rsi        # 4037a4 <_IO_stdin_used+0x494>
  40204c:	bf 01 00 00 00       	mov    $0x1,%edi
  402051:	b8 00 00 00 00       	mov    $0x0,%eax
  402056:	e8 05 ee ff ff       	callq  400e60 <__printf_chk@plt>
  40205b:	48 8b 15 06 31 20 00 	mov    0x203106(%rip),%rdx        # 605168 <lab>
  402062:	48 8d 35 47 17 00 00 	lea    0x1747(%rip),%rsi        # 4037b0 <_IO_stdin_used+0x4a0>
  402069:	bf 01 00 00 00       	mov    $0x1,%edi
  40206e:	b8 00 00 00 00       	mov    $0x0,%eax
  402073:	e8 e8 ed ff ff       	callq  400e60 <__printf_chk@plt>
  402078:	48 89 e2             	mov    %rsp,%rdx
  40207b:	48 8d 35 37 17 00 00 	lea    0x1737(%rip),%rsi        # 4037b9 <_IO_stdin_used+0x4a9>
  402082:	bf 01 00 00 00       	mov    $0x1,%edi
  402087:	b8 00 00 00 00       	mov    $0x0,%eax
  40208c:	e8 cf ed ff ff       	callq  400e60 <__printf_chk@plt>
  402091:	48 8b 84 24 08 40 00 	mov    0x4008(%rsp),%rax
  402098:	00 
  402099:	64 48 33 04 25 28 00 	xor    %fs:0x28,%rax
  4020a0:	00 00 
  4020a2:	75 0a                	jne    4020ae <notify_server+0x211>
  4020a4:	48 81 c4 18 40 00 00 	add    $0x4018,%rsp
  4020ab:	5b                   	pop    %rbx
  4020ac:	5d                   	pop    %rbp
  4020ad:	c3                   	retq   
  4020ae:	e8 52 02 00 00       	callq  402305 <__stack_chk_fail>

00000000004020b3 <validate>:
  4020b3:	53                   	push   %rbx
  4020b4:	89 fb                	mov    %edi,%ebx
  4020b6:	83 3d 6b 34 20 00 00 	cmpl   $0x0,0x20346b(%rip)        # 605528 <is_checker>
  4020bd:	74 79                	je     402138 <validate+0x85>
  4020bf:	39 3d 57 34 20 00    	cmp    %edi,0x203457(%rip)        # 60551c <vlevel>
  4020c5:	75 39                	jne    402100 <validate+0x4d>
  4020c7:	8b 15 4b 34 20 00    	mov    0x20344b(%rip),%edx        # 605518 <check_level>
  4020cd:	39 fa                	cmp    %edi,%edx
  4020cf:	75 45                	jne    402116 <validate+0x63>
  4020d1:	0f be 0d 70 40 20 00 	movsbl 0x204070(%rip),%ecx        # 606148 <target_prefix>
  4020d8:	4c 8d 0d 61 34 20 00 	lea    0x203461(%rip),%r9        # 605540 <gets_buf>
  4020df:	41 89 f8             	mov    %edi,%r8d
  4020e2:	8b 15 38 34 20 00    	mov    0x203438(%rip),%edx        # 605520 <authkey>
  4020e8:	48 8d 35 31 18 00 00 	lea    0x1831(%rip),%rsi        # 403920 <_IO_stdin_used+0x610>
  4020ef:	bf 01 00 00 00       	mov    $0x1,%edi
  4020f4:	b8 00 00 00 00       	mov    $0x0,%eax
  4020f9:	e8 62 ed ff ff       	callq  400e60 <__printf_chk@plt>
  4020fe:	5b                   	pop    %rbx
  4020ff:	c3                   	retq   
  402100:	48 8d 3d be 16 00 00 	lea    0x16be(%rip),%rdi        # 4037c5 <_IO_stdin_used+0x4b5>
  402107:	e8 34 ec ff ff       	callq  400d40 <puts@plt>
  40210c:	b8 00 00 00 00       	mov    $0x0,%eax
  402111:	e8 fd fc ff ff       	callq  401e13 <check_fail>
  402116:	89 f9                	mov    %edi,%ecx
  402118:	48 8d 35 d9 17 00 00 	lea    0x17d9(%rip),%rsi        # 4038f8 <_IO_stdin_used+0x5e8>
  40211f:	bf 01 00 00 00       	mov    $0x1,%edi
  402124:	b8 00 00 00 00       	mov    $0x0,%eax
  402129:	e8 32 ed ff ff       	callq  400e60 <__printf_chk@plt>
  40212e:	b8 00 00 00 00       	mov    $0x0,%eax
  402133:	e8 db fc ff ff       	callq  401e13 <check_fail>
  402138:	39 3d de 33 20 00    	cmp    %edi,0x2033de(%rip)        # 60551c <vlevel>
  40213e:	74 1a                	je     40215a <validate+0xa7>
  402140:	48 8d 3d 7e 16 00 00 	lea    0x167e(%rip),%rdi        # 4037c5 <_IO_stdin_used+0x4b5>
  402147:	e8 f4 eb ff ff       	callq  400d40 <puts@plt>
  40214c:	89 de                	mov    %ebx,%esi
  40214e:	bf 00 00 00 00       	mov    $0x0,%edi
  402153:	e8 45 fd ff ff       	callq  401e9d <notify_server>
  402158:	eb a4                	jmp    4020fe <validate+0x4b>
  40215a:	0f be 0d e7 3f 20 00 	movsbl 0x203fe7(%rip),%ecx        # 606148 <target_prefix>
  402161:	89 fa                	mov    %edi,%edx
  402163:	48 8d 35 de 17 00 00 	lea    0x17de(%rip),%rsi        # 403948 <_IO_stdin_used+0x638>
  40216a:	bf 01 00 00 00       	mov    $0x1,%edi
  40216f:	b8 00 00 00 00       	mov    $0x0,%eax
  402174:	e8 e7 ec ff ff       	callq  400e60 <__printf_chk@plt>
  402179:	89 de                	mov    %ebx,%esi
  40217b:	bf 01 00 00 00       	mov    $0x1,%edi
  402180:	e8 18 fd ff ff       	callq  401e9d <notify_server>
  402185:	e9 74 ff ff ff       	jmpq   4020fe <validate+0x4b>

000000000040218a <fail>:
  40218a:	48 83 ec 08          	sub    $0x8,%rsp
  40218e:	83 3d 93 33 20 00 00 	cmpl   $0x0,0x203393(%rip)        # 605528 <is_checker>
  402195:	75 11                	jne    4021a8 <fail+0x1e>
  402197:	89 fe                	mov    %edi,%esi
  402199:	bf 00 00 00 00       	mov    $0x0,%edi
  40219e:	e8 fa fc ff ff       	callq  401e9d <notify_server>
  4021a3:	48 83 c4 08          	add    $0x8,%rsp
  4021a7:	c3                   	retq   
  4021a8:	b8 00 00 00 00       	mov    $0x0,%eax
  4021ad:	e8 61 fc ff ff       	callq  401e13 <check_fail>

00000000004021b2 <bushandler>:
  4021b2:	48 83 ec 08          	sub    $0x8,%rsp
  4021b6:	83 3d 6b 33 20 00 00 	cmpl   $0x0,0x20336b(%rip)        # 605528 <is_checker>
  4021bd:	74 16                	je     4021d5 <bushandler+0x23>
  4021bf:	48 8d 3d 1d 16 00 00 	lea    0x161d(%rip),%rdi        # 4037e3 <_IO_stdin_used+0x4d3>
  4021c6:	e8 75 eb ff ff       	callq  400d40 <puts@plt>
  4021cb:	b8 00 00 00 00       	mov    $0x0,%eax
  4021d0:	e8 3e fc ff ff       	callq  401e13 <check_fail>
  4021d5:	48 8d 3d a4 17 00 00 	lea    0x17a4(%rip),%rdi        # 403980 <_IO_stdin_used+0x670>
  4021dc:	e8 5f eb ff ff       	callq  400d40 <puts@plt>
  4021e1:	48 8d 3d 05 16 00 00 	lea    0x1605(%rip),%rdi        # 4037ed <_IO_stdin_used+0x4dd>
  4021e8:	e8 53 eb ff ff       	callq  400d40 <puts@plt>
  4021ed:	be 00 00 00 00       	mov    $0x0,%esi
  4021f2:	bf 00 00 00 00       	mov    $0x0,%edi
  4021f7:	e8 a1 fc ff ff       	callq  401e9d <notify_server>
  4021fc:	bf 01 00 00 00       	mov    $0x1,%edi
  402201:	e8 aa ec ff ff       	callq  400eb0 <exit@plt>

0000000000402206 <seghandler>:
  402206:	48 83 ec 08          	sub    $0x8,%rsp
  40220a:	83 3d 17 33 20 00 00 	cmpl   $0x0,0x203317(%rip)        # 605528 <is_checker>
  402211:	74 16                	je     402229 <seghandler+0x23>
  402213:	48 8d 3d e9 15 00 00 	lea    0x15e9(%rip),%rdi        # 403803 <_IO_stdin_used+0x4f3>
  40221a:	e8 21 eb ff ff       	callq  400d40 <puts@plt>
  40221f:	b8 00 00 00 00       	mov    $0x0,%eax
  402224:	e8 ea fb ff ff       	callq  401e13 <check_fail>
  402229:	48 8d 3d 70 17 00 00 	lea    0x1770(%rip),%rdi        # 4039a0 <_IO_stdin_used+0x690>
  402230:	e8 0b eb ff ff       	callq  400d40 <puts@plt>
  402235:	48 8d 3d b1 15 00 00 	lea    0x15b1(%rip),%rdi        # 4037ed <_IO_stdin_used+0x4dd>
  40223c:	e8 ff ea ff ff       	callq  400d40 <puts@plt>
  402241:	be 00 00 00 00       	mov    $0x0,%esi
  402246:	bf 00 00 00 00       	mov    $0x0,%edi
  40224b:	e8 4d fc ff ff       	callq  401e9d <notify_server>
  402250:	bf 01 00 00 00       	mov    $0x1,%edi
  402255:	e8 56 ec ff ff       	callq  400eb0 <exit@plt>

000000000040225a <illegalhandler>:
  40225a:	48 83 ec 08          	sub    $0x8,%rsp
  40225e:	83 3d c3 32 20 00 00 	cmpl   $0x0,0x2032c3(%rip)        # 605528 <is_checker>
  402265:	74 16                	je     40227d <illegalhandler+0x23>
  402267:	48 8d 3d a8 15 00 00 	lea    0x15a8(%rip),%rdi        # 403816 <_IO_stdin_used+0x506>
  40226e:	e8 cd ea ff ff       	callq  400d40 <puts@plt>
  402273:	b8 00 00 00 00       	mov    $0x0,%eax
  402278:	e8 96 fb ff ff       	callq  401e13 <check_fail>
  40227d:	48 8d 3d 44 17 00 00 	lea    0x1744(%rip),%rdi        # 4039c8 <_IO_stdin_used+0x6b8>
  402284:	e8 b7 ea ff ff       	callq  400d40 <puts@plt>
  402289:	48 8d 3d 5d 15 00 00 	lea    0x155d(%rip),%rdi        # 4037ed <_IO_stdin_used+0x4dd>
  402290:	e8 ab ea ff ff       	callq  400d40 <puts@plt>
  402295:	be 00 00 00 00       	mov    $0x0,%esi
  40229a:	bf 00 00 00 00       	mov    $0x0,%edi
  40229f:	e8 f9 fb ff ff       	callq  401e9d <notify_server>
  4022a4:	bf 01 00 00 00       	mov    $0x1,%edi
  4022a9:	e8 02 ec ff ff       	callq  400eb0 <exit@plt>

00000000004022ae <sigalrmhandler>:
  4022ae:	48 83 ec 08          	sub    $0x8,%rsp
  4022b2:	83 3d 6f 32 20 00 00 	cmpl   $0x0,0x20326f(%rip)        # 605528 <is_checker>
  4022b9:	74 16                	je     4022d1 <sigalrmhandler+0x23>
  4022bb:	48 8d 3d 68 15 00 00 	lea    0x1568(%rip),%rdi        # 40382a <_IO_stdin_used+0x51a>
  4022c2:	e8 79 ea ff ff       	callq  400d40 <puts@plt>
  4022c7:	b8 00 00 00 00       	mov    $0x0,%eax
  4022cc:	e8 42 fb ff ff       	callq  401e13 <check_fail>
  4022d1:	ba 02 00 00 00       	mov    $0x2,%edx
  4022d6:	48 8d 35 1b 17 00 00 	lea    0x171b(%rip),%rsi        # 4039f8 <_IO_stdin_used+0x6e8>
  4022dd:	bf 01 00 00 00       	mov    $0x1,%edi
  4022e2:	b8 00 00 00 00       	mov    $0x0,%eax
  4022e7:	e8 74 eb ff ff       	callq  400e60 <__printf_chk@plt>
  4022ec:	be 00 00 00 00       	mov    $0x0,%esi
  4022f1:	bf 00 00 00 00       	mov    $0x0,%edi
  4022f6:	e8 a2 fb ff ff       	callq  401e9d <notify_server>
  4022fb:	bf 01 00 00 00       	mov    $0x1,%edi
  402300:	e8 ab eb ff ff       	callq  400eb0 <exit@plt>

0000000000402305 <__stack_chk_fail>:
  402305:	48 83 ec 08          	sub    $0x8,%rsp
  402309:	83 3d 18 32 20 00 00 	cmpl   $0x0,0x203218(%rip)        # 605528 <is_checker>
  402310:	74 16                	je     402328 <__stack_chk_fail+0x23>
  402312:	48 8d 3d 19 15 00 00 	lea    0x1519(%rip),%rdi        # 403832 <_IO_stdin_used+0x522>
  402319:	e8 22 ea ff ff       	callq  400d40 <puts@plt>
  40231e:	b8 00 00 00 00       	mov    $0x0,%eax
  402323:	e8 eb fa ff ff       	callq  401e13 <check_fail>
  402328:	48 8d 3d 01 17 00 00 	lea    0x1701(%rip),%rdi        # 403a30 <_IO_stdin_used+0x720>
  40232f:	e8 0c ea ff ff       	callq  400d40 <puts@plt>
  402334:	48 8d 3d b2 14 00 00 	lea    0x14b2(%rip),%rdi        # 4037ed <_IO_stdin_used+0x4dd>
  40233b:	e8 00 ea ff ff       	callq  400d40 <puts@plt>
  402340:	be 00 00 00 00       	mov    $0x0,%esi
  402345:	bf 00 00 00 00       	mov    $0x0,%edi
  40234a:	e8 4e fb ff ff       	callq  401e9d <notify_server>
  40234f:	bf 01 00 00 00       	mov    $0x1,%edi
  402354:	e8 57 eb ff ff       	callq  400eb0 <exit@plt>

0000000000402359 <launch>:
  402359:	55                   	push   %rbp
  40235a:	48 89 e5             	mov    %rsp,%rbp
  40235d:	53                   	push   %rbx
  40235e:	48 83 ec 18          	sub    $0x18,%rsp
  402362:	48 89 fa             	mov    %rdi,%rdx
  402365:	89 f3                	mov    %esi,%ebx
  402367:	64 48 8b 04 25 28 00 	mov    %fs:0x28,%rax
  40236e:	00 00 
  402370:	48 89 45 e8          	mov    %rax,-0x18(%rbp)
  402374:	31 c0                	xor    %eax,%eax
  402376:	48 8d 47 1e          	lea    0x1e(%rdi),%rax
  40237a:	48 83 e0 f0          	and    $0xfffffffffffffff0,%rax
  40237e:	48 29 c4             	sub    %rax,%rsp
  402381:	48 8d 7c 24 0f       	lea    0xf(%rsp),%rdi
  402386:	48 83 e7 f0          	and    $0xfffffffffffffff0,%rdi
  40238a:	be f4 00 00 00       	mov    $0xf4,%esi
  40238f:	e8 dc e9 ff ff       	callq  400d70 <memset@plt>
  402394:	48 8b 05 25 31 20 00 	mov    0x203125(%rip),%rax        # 6054c0 <stdin@@GLIBC_2.2.5>
  40239b:	48 39 05 6e 31 20 00 	cmp    %rax,0x20316e(%rip)        # 605510 <infile>
  4023a2:	74 42                	je     4023e6 <launch+0x8d>
  4023a4:	c7 05 6e 31 20 00 00 	movl   $0x0,0x20316e(%rip)        # 60551c <vlevel>
  4023ab:	00 00 00 
  4023ae:	85 db                	test   %ebx,%ebx
  4023b0:	75 4c                	jne    4023fe <launch+0xa5>
  4023b2:	b8 00 00 00 00       	mov    $0x0,%eax
  4023b7:	e8 fb f7 ff ff       	callq  401bb7 <test>
  4023bc:	83 3d 65 31 20 00 00 	cmpl   $0x0,0x203165(%rip)        # 605528 <is_checker>
  4023c3:	75 45                	jne    40240a <launch+0xb1>
  4023c5:	48 8d 3d 8d 14 00 00 	lea    0x148d(%rip),%rdi        # 403859 <_IO_stdin_used+0x549>
  4023cc:	e8 6f e9 ff ff       	callq  400d40 <puts@plt>
  4023d1:	48 8b 45 e8          	mov    -0x18(%rbp),%rax
  4023d5:	64 48 33 04 25 28 00 	xor    %fs:0x28,%rax
  4023dc:	00 00 
  4023de:	75 40                	jne    402420 <launch+0xc7>
  4023e0:	48 8b 5d f8          	mov    -0x8(%rbp),%rbx
  4023e4:	c9                   	leaveq 
  4023e5:	c3                   	retq   
  4023e6:	48 8d 35 54 14 00 00 	lea    0x1454(%rip),%rsi        # 403841 <_IO_stdin_used+0x531>
  4023ed:	bf 01 00 00 00       	mov    $0x1,%edi
  4023f2:	b8 00 00 00 00       	mov    $0x0,%eax
  4023f7:	e8 64 ea ff ff       	callq  400e60 <__printf_chk@plt>
  4023fc:	eb a6                	jmp    4023a4 <launch+0x4b>
  4023fe:	b8 00 00 00 00       	mov    $0x0,%eax
  402403:	e8 da f7 ff ff       	callq  401be2 <test2>
  402408:	eb b2                	jmp    4023bc <launch+0x63>
  40240a:	48 8d 3d 3d 14 00 00 	lea    0x143d(%rip),%rdi        # 40384e <_IO_stdin_used+0x53e>
  402411:	e8 2a e9 ff ff       	callq  400d40 <puts@plt>
  402416:	b8 00 00 00 00       	mov    $0x0,%eax
  40241b:	e8 f3 f9 ff ff       	callq  401e13 <check_fail>
  402420:	e8 e0 fe ff ff       	callq  402305 <__stack_chk_fail>

0000000000402425 <stable_launch>:
  402425:	55                   	push   %rbp
  402426:	53                   	push   %rbx
  402427:	48 83 ec 08          	sub    $0x8,%rsp
  40242b:	89 f5                	mov    %esi,%ebp
  40242d:	48 89 3d d4 30 20 00 	mov    %rdi,0x2030d4(%rip)        # 605508 <global_offset>
  402434:	41 b9 00 00 00 00    	mov    $0x0,%r9d
  40243a:	41 b8 00 00 00 00    	mov    $0x0,%r8d
  402440:	b9 32 01 00 00       	mov    $0x132,%ecx
  402445:	ba 07 00 00 00       	mov    $0x7,%edx
  40244a:	be 00 00 10 00       	mov    $0x100000,%esi
  40244f:	bf 00 60 58 55       	mov    $0x55586000,%edi
  402454:	e8 07 e9 ff ff       	callq  400d60 <mmap@plt>
  402459:	48 89 c3             	mov    %rax,%rbx
  40245c:	48 3d 00 60 58 55    	cmp    $0x55586000,%rax
  402462:	75 4a                	jne    4024ae <stable_launch+0x89>
  402464:	48 8d 90 f8 ff 0f 00 	lea    0xffff8(%rax),%rdx
  40246b:	48 89 15 de 3c 20 00 	mov    %rdx,0x203cde(%rip)        # 606150 <stack_top>
  402472:	48 89 e0             	mov    %rsp,%rax
  402475:	48 89 d4             	mov    %rdx,%rsp
  402478:	48 89 c2             	mov    %rax,%rdx
  40247b:	48 89 15 7e 30 20 00 	mov    %rdx,0x20307e(%rip)        # 605500 <global_save_stack>
  402482:	89 ee                	mov    %ebp,%esi
  402484:	48 8b 3d 7d 30 20 00 	mov    0x20307d(%rip),%rdi        # 605508 <global_offset>
  40248b:	e8 c9 fe ff ff       	callq  402359 <launch>
  402490:	48 8b 05 69 30 20 00 	mov    0x203069(%rip),%rax        # 605500 <global_save_stack>
  402497:	48 89 c4             	mov    %rax,%rsp
  40249a:	be 00 00 10 00       	mov    $0x100000,%esi
  40249f:	48 89 df             	mov    %rbx,%rdi
  4024a2:	e8 a9 e9 ff ff       	callq  400e50 <munmap@plt>
  4024a7:	48 83 c4 08          	add    $0x8,%rsp
  4024ab:	5b                   	pop    %rbx
  4024ac:	5d                   	pop    %rbp
  4024ad:	c3                   	retq   
  4024ae:	be 00 00 10 00       	mov    $0x100000,%esi
  4024b3:	48 89 c7             	mov    %rax,%rdi
  4024b6:	e8 95 e9 ff ff       	callq  400e50 <munmap@plt>
  4024bb:	b9 00 60 58 55       	mov    $0x55586000,%ecx
  4024c0:	48 8d 15 91 15 00 00 	lea    0x1591(%rip),%rdx        # 403a58 <_IO_stdin_used+0x748>
  4024c7:	be 01 00 00 00       	mov    $0x1,%esi
  4024cc:	48 8b 3d 0d 30 20 00 	mov    0x20300d(%rip),%rdi        # 6054e0 <stderr@@GLIBC_2.2.5>
  4024d3:	b8 00 00 00 00       	mov    $0x0,%eax
  4024d8:	e8 f3 e9 ff ff       	callq  400ed0 <__fprintf_chk@plt>
  4024dd:	bf 01 00 00 00       	mov    $0x1,%edi
  4024e2:	e8 c9 e9 ff ff       	callq  400eb0 <exit@plt>

00000000004024e7 <rio_readinitb>:
  4024e7:	89 37                	mov    %esi,(%rdi)
  4024e9:	c7 47 04 00 00 00 00 	movl   $0x0,0x4(%rdi)
  4024f0:	48 8d 47 10          	lea    0x10(%rdi),%rax
  4024f4:	48 89 47 08          	mov    %rax,0x8(%rdi)
  4024f8:	c3                   	retq   

00000000004024f9 <sigalrm_handler>:
  4024f9:	48 83 ec 08          	sub    $0x8,%rsp
  4024fd:	b9 00 00 00 00       	mov    $0x0,%ecx
  402502:	48 8d 15 87 15 00 00 	lea    0x1587(%rip),%rdx        # 403a90 <trans_char+0x10>
  402509:	be 01 00 00 00       	mov    $0x1,%esi
  40250e:	48 8b 3d cb 2f 20 00 	mov    0x202fcb(%rip),%rdi        # 6054e0 <stderr@@GLIBC_2.2.5>
  402515:	b8 00 00 00 00       	mov    $0x0,%eax
  40251a:	e8 b1 e9 ff ff       	callq  400ed0 <__fprintf_chk@plt>
  40251f:	bf 01 00 00 00       	mov    $0x1,%edi
  402524:	e8 87 e9 ff ff       	callq  400eb0 <exit@plt>

0000000000402529 <rio_writen>:
  402529:	41 55                	push   %r13
  40252b:	41 54                	push   %r12
  40252d:	55                   	push   %rbp
  40252e:	53                   	push   %rbx
  40252f:	48 83 ec 08          	sub    $0x8,%rsp
  402533:	41 89 fc             	mov    %edi,%r12d
  402536:	48 89 f5             	mov    %rsi,%rbp
  402539:	49 89 d5             	mov    %rdx,%r13
  40253c:	48 89 d3             	mov    %rdx,%rbx
  40253f:	eb 06                	jmp    402547 <rio_writen+0x1e>
  402541:	48 29 c3             	sub    %rax,%rbx
  402544:	48 01 c5             	add    %rax,%rbp
  402547:	48 85 db             	test   %rbx,%rbx
  40254a:	74 24                	je     402570 <rio_writen+0x47>
  40254c:	48 89 da             	mov    %rbx,%rdx
  40254f:	48 89 ee             	mov    %rbp,%rsi
  402552:	44 89 e7             	mov    %r12d,%edi
  402555:	e8 f6 e7 ff ff       	callq  400d50 <write@plt>
  40255a:	48 85 c0             	test   %rax,%rax
  40255d:	7f e2                	jg     402541 <rio_writen+0x18>
  40255f:	e8 8c e7 ff ff       	callq  400cf0 <__errno_location@plt>
  402564:	83 38 04             	cmpl   $0x4,(%rax)
  402567:	75 15                	jne    40257e <rio_writen+0x55>
  402569:	b8 00 00 00 00       	mov    $0x0,%eax
  40256e:	eb d1                	jmp    402541 <rio_writen+0x18>
  402570:	4c 89 e8             	mov    %r13,%rax
  402573:	48 83 c4 08          	add    $0x8,%rsp
  402577:	5b                   	pop    %rbx
  402578:	5d                   	pop    %rbp
  402579:	41 5c                	pop    %r12
  40257b:	41 5d                	pop    %r13
  40257d:	c3                   	retq   
  40257e:	48 c7 c0 ff ff ff ff 	mov    $0xffffffffffffffff,%rax
  402585:	eb ec                	jmp    402573 <rio_writen+0x4a>

0000000000402587 <rio_read>:
  402587:	41 55                	push   %r13
  402589:	41 54                	push   %r12
  40258b:	55                   	push   %rbp
  40258c:	53                   	push   %rbx
  40258d:	48 83 ec 08          	sub    $0x8,%rsp
  402591:	48 89 fb             	mov    %rdi,%rbx
  402594:	49 89 f5             	mov    %rsi,%r13
  402597:	49 89 d4             	mov    %rdx,%r12
  40259a:	eb 0a                	jmp    4025a6 <rio_read+0x1f>
  40259c:	e8 4f e7 ff ff       	callq  400cf0 <__errno_location@plt>
  4025a1:	83 38 04             	cmpl   $0x4,(%rax)
  4025a4:	75 5c                	jne    402602 <rio_read+0x7b>
  4025a6:	8b 6b 04             	mov    0x4(%rbx),%ebp
  4025a9:	85 ed                	test   %ebp,%ebp
  4025ab:	7f 24                	jg     4025d1 <rio_read+0x4a>
  4025ad:	48 8d 6b 10          	lea    0x10(%rbx),%rbp
  4025b1:	8b 3b                	mov    (%rbx),%edi
  4025b3:	ba 00 20 00 00       	mov    $0x2000,%edx
  4025b8:	48 89 ee             	mov    %rbp,%rsi
  4025bb:	e8 e0 e7 ff ff       	callq  400da0 <read@plt>
  4025c0:	89 43 04             	mov    %eax,0x4(%rbx)
  4025c3:	85 c0                	test   %eax,%eax
  4025c5:	78 d5                	js     40259c <rio_read+0x15>
  4025c7:	85 c0                	test   %eax,%eax
  4025c9:	74 40                	je     40260b <rio_read+0x84>
  4025cb:	48 89 6b 08          	mov    %rbp,0x8(%rbx)
  4025cf:	eb d5                	jmp    4025a6 <rio_read+0x1f>
  4025d1:	89 e8                	mov    %ebp,%eax
  4025d3:	4c 39 e0             	cmp    %r12,%rax
  4025d6:	72 03                	jb     4025db <rio_read+0x54>
  4025d8:	44 89 e5             	mov    %r12d,%ebp
  4025db:	4c 63 e5             	movslq %ebp,%r12
  4025de:	48 8b 73 08          	mov    0x8(%rbx),%rsi
  4025e2:	4c 89 e2             	mov    %r12,%rdx
  4025e5:	4c 89 ef             	mov    %r13,%rdi
  4025e8:	e8 13 e8 ff ff       	callq  400e00 <memcpy@plt>
  4025ed:	4c 01 63 08          	add    %r12,0x8(%rbx)
  4025f1:	29 6b 04             	sub    %ebp,0x4(%rbx)
  4025f4:	4c 89 e0             	mov    %r12,%rax
  4025f7:	48 83 c4 08          	add    $0x8,%rsp
  4025fb:	5b                   	pop    %rbx
  4025fc:	5d                   	pop    %rbp
  4025fd:	41 5c                	pop    %r12
  4025ff:	41 5d                	pop    %r13
  402601:	c3                   	retq   
  402602:	48 c7 c0 ff ff ff ff 	mov    $0xffffffffffffffff,%rax
  402609:	eb ec                	jmp    4025f7 <rio_read+0x70>
  40260b:	b8 00 00 00 00       	mov    $0x0,%eax
  402610:	eb e5                	jmp    4025f7 <rio_read+0x70>

0000000000402612 <rio_readlineb>:
  402612:	41 55                	push   %r13
  402614:	41 54                	push   %r12
  402616:	55                   	push   %rbp
  402617:	53                   	push   %rbx
  402618:	48 83 ec 18          	sub    $0x18,%rsp
  40261c:	49 89 fd             	mov    %rdi,%r13
  40261f:	48 89 f5             	mov    %rsi,%rbp
  402622:	49 89 d4             	mov    %rdx,%r12
  402625:	64 48 8b 04 25 28 00 	mov    %fs:0x28,%rax
  40262c:	00 00 
  40262e:	48 89 44 24 08       	mov    %rax,0x8(%rsp)
  402633:	31 c0                	xor    %eax,%eax
  402635:	bb 01 00 00 00       	mov    $0x1,%ebx
  40263a:	4c 39 e3             	cmp    %r12,%rbx
  40263d:	73 47                	jae    402686 <rio_readlineb+0x74>
  40263f:	48 8d 74 24 07       	lea    0x7(%rsp),%rsi
  402644:	ba 01 00 00 00       	mov    $0x1,%edx
  402649:	4c 89 ef             	mov    %r13,%rdi
  40264c:	e8 36 ff ff ff       	callq  402587 <rio_read>
  402651:	83 f8 01             	cmp    $0x1,%eax
  402654:	75 1c                	jne    402672 <rio_readlineb+0x60>
  402656:	48 8d 45 01          	lea    0x1(%rbp),%rax
  40265a:	0f b6 54 24 07       	movzbl 0x7(%rsp),%edx
  40265f:	88 55 00             	mov    %dl,0x0(%rbp)
  402662:	80 7c 24 07 0a       	cmpb   $0xa,0x7(%rsp)
  402667:	74 1a                	je     402683 <rio_readlineb+0x71>
  402669:	48 83 c3 01          	add    $0x1,%rbx
  40266d:	48 89 c5             	mov    %rax,%rbp
  402670:	eb c8                	jmp    40263a <rio_readlineb+0x28>
  402672:	85 c0                	test   %eax,%eax
  402674:	75 32                	jne    4026a8 <rio_readlineb+0x96>
  402676:	48 83 fb 01          	cmp    $0x1,%rbx
  40267a:	75 0a                	jne    402686 <rio_readlineb+0x74>
  40267c:	b8 00 00 00 00       	mov    $0x0,%eax
  402681:	eb 0a                	jmp    40268d <rio_readlineb+0x7b>
  402683:	48 89 c5             	mov    %rax,%rbp
  402686:	c6 45 00 00          	movb   $0x0,0x0(%rbp)
  40268a:	48 89 d8             	mov    %rbx,%rax
  40268d:	48 8b 4c 24 08       	mov    0x8(%rsp),%rcx
  402692:	64 48 33 0c 25 28 00 	xor    %fs:0x28,%rcx
  402699:	00 00 
  40269b:	75 14                	jne    4026b1 <rio_readlineb+0x9f>
  40269d:	48 83 c4 18          	add    $0x18,%rsp
  4026a1:	5b                   	pop    %rbx
  4026a2:	5d                   	pop    %rbp
  4026a3:	41 5c                	pop    %r12
  4026a5:	41 5d                	pop    %r13
  4026a7:	c3                   	retq   
  4026a8:	48 c7 c0 ff ff ff ff 	mov    $0xffffffffffffffff,%rax
  4026af:	eb dc                	jmp    40268d <rio_readlineb+0x7b>
  4026b1:	e8 4f fc ff ff       	callq  402305 <__stack_chk_fail>

00000000004026b6 <urlencode>:
  4026b6:	41 54                	push   %r12
  4026b8:	55                   	push   %rbp
  4026b9:	53                   	push   %rbx
  4026ba:	48 83 ec 10          	sub    $0x10,%rsp
  4026be:	48 89 fb             	mov    %rdi,%rbx
  4026c1:	48 89 f5             	mov    %rsi,%rbp
  4026c4:	64 48 8b 04 25 28 00 	mov    %fs:0x28,%rax
  4026cb:	00 00 
  4026cd:	48 89 44 24 08       	mov    %rax,0x8(%rsp)
  4026d2:	31 c0                	xor    %eax,%eax
  4026d4:	48 c7 c1 ff ff ff ff 	mov    $0xffffffffffffffff,%rcx
  4026db:	f2 ae                	repnz scas %es:(%rdi),%al
  4026dd:	48 89 ce             	mov    %rcx,%rsi
  4026e0:	48 f7 d6             	not    %rsi
  4026e3:	8d 46 ff             	lea    -0x1(%rsi),%eax
  4026e6:	eb 0f                	jmp    4026f7 <urlencode+0x41>
  4026e8:	44 88 45 00          	mov    %r8b,0x0(%rbp)
  4026ec:	48 8d 6d 01          	lea    0x1(%rbp),%rbp
  4026f0:	48 83 c3 01          	add    $0x1,%rbx
  4026f4:	44 89 e0             	mov    %r12d,%eax
  4026f7:	44 8d 60 ff          	lea    -0x1(%rax),%r12d
  4026fb:	85 c0                	test   %eax,%eax
  4026fd:	0f 84 a8 00 00 00    	je     4027ab <urlencode+0xf5>
  402703:	44 0f b6 03          	movzbl (%rbx),%r8d
  402707:	41 80 f8 2a          	cmp    $0x2a,%r8b
  40270b:	0f 94 c2             	sete   %dl
  40270e:	41 80 f8 2d          	cmp    $0x2d,%r8b
  402712:	0f 94 c0             	sete   %al
  402715:	08 c2                	or     %al,%dl
  402717:	75 cf                	jne    4026e8 <urlencode+0x32>
  402719:	41 80 f8 2e          	cmp    $0x2e,%r8b
  40271d:	74 c9                	je     4026e8 <urlencode+0x32>
  40271f:	41 80 f8 5f          	cmp    $0x5f,%r8b
  402723:	74 c3                	je     4026e8 <urlencode+0x32>
  402725:	41 8d 40 d0          	lea    -0x30(%r8),%eax
  402729:	3c 09                	cmp    $0x9,%al
  40272b:	76 bb                	jbe    4026e8 <urlencode+0x32>
  40272d:	41 8d 40 bf          	lea    -0x41(%r8),%eax
  402731:	3c 19                	cmp    $0x19,%al
  402733:	76 b3                	jbe    4026e8 <urlencode+0x32>
  402735:	41 8d 40 9f          	lea    -0x61(%r8),%eax
  402739:	3c 19                	cmp    $0x19,%al
  40273b:	76 ab                	jbe    4026e8 <urlencode+0x32>
  40273d:	41 80 f8 20          	cmp    $0x20,%r8b
  402741:	74 56                	je     402799 <urlencode+0xe3>
  402743:	41 8d 40 e0          	lea    -0x20(%r8),%eax
  402747:	3c 5f                	cmp    $0x5f,%al
  402749:	0f 96 c2             	setbe  %dl
  40274c:	41 80 f8 09          	cmp    $0x9,%r8b
  402750:	0f 94 c0             	sete   %al
  402753:	08 c2                	or     %al,%dl
  402755:	74 4f                	je     4027a6 <urlencode+0xf0>
  402757:	48 89 e7             	mov    %rsp,%rdi
  40275a:	45 0f b6 c0          	movzbl %r8b,%r8d
  40275e:	48 8d 0d e3 13 00 00 	lea    0x13e3(%rip),%rcx        # 403b48 <trans_char+0xc8>
  402765:	ba 08 00 00 00       	mov    $0x8,%edx
  40276a:	be 01 00 00 00       	mov    $0x1,%esi
  40276f:	b8 00 00 00 00       	mov    $0x0,%eax
  402774:	e8 67 e7 ff ff       	callq  400ee0 <__sprintf_chk@plt>
  402779:	0f b6 04 24          	movzbl (%rsp),%eax
  40277d:	88 45 00             	mov    %al,0x0(%rbp)
  402780:	0f b6 44 24 01       	movzbl 0x1(%rsp),%eax
  402785:	88 45 01             	mov    %al,0x1(%rbp)
  402788:	0f b6 44 24 02       	movzbl 0x2(%rsp),%eax
  40278d:	88 45 02             	mov    %al,0x2(%rbp)
  402790:	48 8d 6d 03          	lea    0x3(%rbp),%rbp
  402794:	e9 57 ff ff ff       	jmpq   4026f0 <urlencode+0x3a>
  402799:	c6 45 00 2b          	movb   $0x2b,0x0(%rbp)
  40279d:	48 8d 6d 01          	lea    0x1(%rbp),%rbp
  4027a1:	e9 4a ff ff ff       	jmpq   4026f0 <urlencode+0x3a>
  4027a6:	b8 ff ff ff ff       	mov    $0xffffffff,%eax
  4027ab:	48 8b 74 24 08       	mov    0x8(%rsp),%rsi
  4027b0:	64 48 33 34 25 28 00 	xor    %fs:0x28,%rsi
  4027b7:	00 00 
  4027b9:	75 09                	jne    4027c4 <urlencode+0x10e>
  4027bb:	48 83 c4 10          	add    $0x10,%rsp
  4027bf:	5b                   	pop    %rbx
  4027c0:	5d                   	pop    %rbp
  4027c1:	41 5c                	pop    %r12
  4027c3:	c3                   	retq   
  4027c4:	e8 3c fb ff ff       	callq  402305 <__stack_chk_fail>

00000000004027c9 <submitr>:
  4027c9:	41 57                	push   %r15
  4027cb:	41 56                	push   %r14
  4027cd:	41 55                	push   %r13
  4027cf:	41 54                	push   %r12
  4027d1:	55                   	push   %rbp
  4027d2:	53                   	push   %rbx
  4027d3:	48 81 ec 68 a0 00 00 	sub    $0xa068,%rsp
  4027da:	49 89 fd             	mov    %rdi,%r13
  4027dd:	89 74 24 1c          	mov    %esi,0x1c(%rsp)
  4027e1:	48 89 54 24 08       	mov    %rdx,0x8(%rsp)
  4027e6:	49 89 ce             	mov    %rcx,%r14
  4027e9:	4c 89 44 24 10       	mov    %r8,0x10(%rsp)
  4027ee:	4d 89 cf             	mov    %r9,%r15
  4027f1:	48 8b ac 24 a0 a0 00 	mov    0xa0a0(%rsp),%rbp
  4027f8:	00 
  4027f9:	64 48 8b 04 25 28 00 	mov    %fs:0x28,%rax
  402800:	00 00 
  402802:	48 89 84 24 58 a0 00 	mov    %rax,0xa058(%rsp)
  402809:	00 
  40280a:	31 c0                	xor    %eax,%eax
  40280c:	c7 44 24 2c 00 00 00 	movl   $0x0,0x2c(%rsp)
  402813:	00 
  402814:	ba 00 00 00 00       	mov    $0x0,%edx
  402819:	be 01 00 00 00       	mov    $0x1,%esi
  40281e:	bf 02 00 00 00       	mov    $0x2,%edi
  402823:	e8 c8 e6 ff ff       	callq  400ef0 <socket@plt>
  402828:	85 c0                	test   %eax,%eax
  40282a:	0f 88 ae 02 00 00    	js     402ade <submitr+0x315>
  402830:	89 c3                	mov    %eax,%ebx
  402832:	4c 89 ef             	mov    %r13,%rdi
  402835:	e8 96 e5 ff ff       	callq  400dd0 <gethostbyname@plt>
  40283a:	48 85 c0             	test   %rax,%rax
  40283d:	0f 84 e7 02 00 00    	je     402b2a <submitr+0x361>
  402843:	4c 8d 64 24 30       	lea    0x30(%rsp),%r12
  402848:	48 c7 44 24 32 00 00 	movq   $0x0,0x32(%rsp)
  40284f:	00 00 
  402851:	c7 44 24 3a 00 00 00 	movl   $0x0,0x3a(%rsp)
  402858:	00 
  402859:	66 c7 44 24 3e 00 00 	movw   $0x0,0x3e(%rsp)
  402860:	66 c7 44 24 30 02 00 	movw   $0x2,0x30(%rsp)
  402867:	48 63 50 14          	movslq 0x14(%rax),%rdx
  40286b:	48 8b 40 18          	mov    0x18(%rax),%rax
  40286f:	48 8b 30             	mov    (%rax),%rsi
  402872:	48 8d 7c 24 34       	lea    0x34(%rsp),%rdi
  402877:	b9 0c 00 00 00       	mov    $0xc,%ecx
  40287c:	e8 5f e5 ff ff       	callq  400de0 <__memmove_chk@plt>
  402881:	0f b7 44 24 1c       	movzwl 0x1c(%rsp),%eax
  402886:	66 c1 c8 08          	ror    $0x8,%ax
  40288a:	66 89 44 24 32       	mov    %ax,0x32(%rsp)
  40288f:	ba 10 00 00 00       	mov    $0x10,%edx
  402894:	4c 89 e6             	mov    %r12,%rsi
  402897:	89 df                	mov    %ebx,%edi
  402899:	e8 22 e6 ff ff       	callq  400ec0 <connect@plt>
  40289e:	85 c0                	test   %eax,%eax
  4028a0:	0f 88 fa 02 00 00    	js     402ba0 <submitr+0x3d7>
  4028a6:	48 c7 c6 ff ff ff ff 	mov    $0xffffffffffffffff,%rsi
  4028ad:	b8 00 00 00 00       	mov    $0x0,%eax
  4028b2:	48 89 f1             	mov    %rsi,%rcx
  4028b5:	4c 89 ff             	mov    %r15,%rdi
  4028b8:	f2 ae                	repnz scas %es:(%rdi),%al
  4028ba:	48 89 ca             	mov    %rcx,%rdx
  4028bd:	48 f7 d2             	not    %rdx
  4028c0:	48 89 f1             	mov    %rsi,%rcx
  4028c3:	48 8b 7c 24 08       	mov    0x8(%rsp),%rdi
  4028c8:	f2 ae                	repnz scas %es:(%rdi),%al
  4028ca:	48 f7 d1             	not    %rcx
  4028cd:	49 89 c8             	mov    %rcx,%r8
  4028d0:	48 89 f1             	mov    %rsi,%rcx
  4028d3:	4c 89 f7             	mov    %r14,%rdi
  4028d6:	f2 ae                	repnz scas %es:(%rdi),%al
  4028d8:	48 f7 d1             	not    %rcx
  4028db:	4d 8d 44 08 fe       	lea    -0x2(%r8,%rcx,1),%r8
  4028e0:	48 89 f1             	mov    %rsi,%rcx
  4028e3:	48 8b 7c 24 10       	mov    0x10(%rsp),%rdi
  4028e8:	f2 ae                	repnz scas %es:(%rdi),%al
  4028ea:	48 89 c8             	mov    %rcx,%rax
  4028ed:	48 f7 d0             	not    %rax
  4028f0:	49 8d 4c 00 ff       	lea    -0x1(%r8,%rax,1),%rcx
  4028f5:	48 8d 44 52 fd       	lea    -0x3(%rdx,%rdx,2),%rax
  4028fa:	48 8d 84 01 80 00 00 	lea    0x80(%rcx,%rax,1),%rax
  402901:	00 
  402902:	48 3d 00 20 00 00    	cmp    $0x2000,%rax
  402908:	0f 87 fa 02 00 00    	ja     402c08 <submitr+0x43f>
  40290e:	48 8d b4 24 50 40 00 	lea    0x4050(%rsp),%rsi
  402915:	00 
  402916:	b9 00 04 00 00       	mov    $0x400,%ecx
  40291b:	b8 00 00 00 00       	mov    $0x0,%eax
  402920:	48 89 f7             	mov    %rsi,%rdi
  402923:	f3 48 ab             	rep stos %rax,%es:(%rdi)
  402926:	4c 89 ff             	mov    %r15,%rdi
  402929:	e8 88 fd ff ff       	callq  4026b6 <urlencode>
  40292e:	85 c0                	test   %eax,%eax
  402930:	0f 88 45 03 00 00    	js     402c7b <submitr+0x4b2>
  402936:	4c 8d a4 24 50 20 00 	lea    0x2050(%rsp),%r12
  40293d:	00 
  40293e:	48 83 ec 08          	sub    $0x8,%rsp
  402942:	41 55                	push   %r13
  402944:	48 8d 84 24 60 40 00 	lea    0x4060(%rsp),%rax
  40294b:	00 
  40294c:	50                   	push   %rax
  40294d:	41 56                	push   %r14
  40294f:	4c 8b 4c 24 30       	mov    0x30(%rsp),%r9
  402954:	4c 8b 44 24 28       	mov    0x28(%rsp),%r8
  402959:	48 8d 0d 58 11 00 00 	lea    0x1158(%rip),%rcx        # 403ab8 <trans_char+0x38>
  402960:	ba 00 20 00 00       	mov    $0x2000,%edx
  402965:	be 01 00 00 00       	mov    $0x1,%esi
  40296a:	4c 89 e7             	mov    %r12,%rdi
  40296d:	b8 00 00 00 00       	mov    $0x0,%eax
  402972:	e8 69 e5 ff ff       	callq  400ee0 <__sprintf_chk@plt>
  402977:	48 c7 c1 ff ff ff ff 	mov    $0xffffffffffffffff,%rcx
  40297e:	b8 00 00 00 00       	mov    $0x0,%eax
  402983:	4c 89 e7             	mov    %r12,%rdi
  402986:	f2 ae                	repnz scas %es:(%rdi),%al
  402988:	48 89 ca             	mov    %rcx,%rdx
  40298b:	48 f7 d2             	not    %rdx
  40298e:	48 8d 52 ff          	lea    -0x1(%rdx),%rdx
  402992:	48 83 c4 20          	add    $0x20,%rsp
  402996:	4c 89 e6             	mov    %r12,%rsi
  402999:	89 df                	mov    %ebx,%edi
  40299b:	e8 89 fb ff ff       	callq  402529 <rio_writen>
  4029a0:	48 85 c0             	test   %rax,%rax
  4029a3:	0f 88 5d 03 00 00    	js     402d06 <submitr+0x53d>
  4029a9:	4c 8d 64 24 40       	lea    0x40(%rsp),%r12
  4029ae:	89 de                	mov    %ebx,%esi
  4029b0:	4c 89 e7             	mov    %r12,%rdi
  4029b3:	e8 2f fb ff ff       	callq  4024e7 <rio_readinitb>
  4029b8:	48 8d b4 24 50 20 00 	lea    0x2050(%rsp),%rsi
  4029bf:	00 
  4029c0:	ba 00 20 00 00       	mov    $0x2000,%edx
  4029c5:	4c 89 e7             	mov    %r12,%rdi
  4029c8:	e8 45 fc ff ff       	callq  402612 <rio_readlineb>
  4029cd:	48 85 c0             	test   %rax,%rax
  4029d0:	0f 8e 9c 03 00 00    	jle    402d72 <submitr+0x5a9>
  4029d6:	48 8d 4c 24 2c       	lea    0x2c(%rsp),%rcx
  4029db:	48 8d 94 24 50 60 00 	lea    0x6050(%rsp),%rdx
  4029e2:	00 
  4029e3:	48 8d bc 24 50 20 00 	lea    0x2050(%rsp),%rdi
  4029ea:	00 
  4029eb:	4c 8d 84 24 50 80 00 	lea    0x8050(%rsp),%r8
  4029f2:	00 
  4029f3:	48 8d 35 55 11 00 00 	lea    0x1155(%rip),%rsi        # 403b4f <trans_char+0xcf>
  4029fa:	b8 00 00 00 00       	mov    $0x0,%eax
  4029ff:	e8 3c e4 ff ff       	callq  400e40 <__isoc99_sscanf@plt>
  402a04:	48 8d b4 24 50 20 00 	lea    0x2050(%rsp),%rsi
  402a0b:	00 
  402a0c:	b9 03 00 00 00       	mov    $0x3,%ecx
  402a11:	48 8d 3d 4e 11 00 00 	lea    0x114e(%rip),%rdi        # 403b66 <trans_char+0xe6>
  402a18:	f3 a6                	repz cmpsb %es:(%rdi),%ds:(%rsi)
  402a1a:	0f 97 c0             	seta   %al
  402a1d:	1c 00                	sbb    $0x0,%al
  402a1f:	84 c0                	test   %al,%al
  402a21:	0f 84 cb 03 00 00    	je     402df2 <submitr+0x629>
  402a27:	48 8d b4 24 50 20 00 	lea    0x2050(%rsp),%rsi
  402a2e:	00 
  402a2f:	48 8d 7c 24 40       	lea    0x40(%rsp),%rdi
  402a34:	ba 00 20 00 00       	mov    $0x2000,%edx
  402a39:	e8 d4 fb ff ff       	callq  402612 <rio_readlineb>
  402a3e:	48 85 c0             	test   %rax,%rax
  402a41:	7f c1                	jg     402a04 <submitr+0x23b>
  402a43:	48 b8 45 72 72 6f 72 	movabs $0x43203a726f727245,%rax
  402a4a:	3a 20 43 
  402a4d:	48 ba 6c 69 65 6e 74 	movabs $0x6e7520746e65696c,%rdx
  402a54:	20 75 6e 
  402a57:	48 89 45 00          	mov    %rax,0x0(%rbp)
  402a5b:	48 89 55 08          	mov    %rdx,0x8(%rbp)
  402a5f:	48 b8 61 62 6c 65 20 	movabs $0x206f7420656c6261,%rax
  402a66:	74 6f 20 
  402a69:	48 ba 72 65 61 64 20 	movabs $0x6165682064616572,%rdx
  402a70:	68 65 61 
  402a73:	48 89 45 10          	mov    %rax,0x10(%rbp)
  402a77:	48 89 55 18          	mov    %rdx,0x18(%rbp)
  402a7b:	48 b8 64 65 72 73 20 	movabs $0x6f72662073726564,%rax
  402a82:	66 72 6f 
  402a85:	48 ba 6d 20 41 75 74 	movabs $0x616c6f747541206d,%rdx
  402a8c:	6f 6c 61 
  402a8f:	48 89 45 20          	mov    %rax,0x20(%rbp)
  402a93:	48 89 55 28          	mov    %rdx,0x28(%rbp)
  402a97:	48 b8 62 20 73 65 72 	movabs $0x7265767265732062,%rax
  402a9e:	76 65 72 
  402aa1:	48 89 45 30          	mov    %rax,0x30(%rbp)
  402aa5:	c6 45 38 00          	movb   $0x0,0x38(%rbp)
  402aa9:	89 df                	mov    %ebx,%edi
  402aab:	e8 e0 e2 ff ff       	callq  400d90 <close@plt>
  402ab0:	b8 ff ff ff ff       	mov    $0xffffffff,%eax
  402ab5:	48 8b 9c 24 58 a0 00 	mov    0xa058(%rsp),%rbx
  402abc:	00 
  402abd:	64 48 33 1c 25 28 00 	xor    %fs:0x28,%rbx
  402ac4:	00 00 
  402ac6:	0f 85 96 04 00 00    	jne    402f62 <submitr+0x799>
  402acc:	48 81 c4 68 a0 00 00 	add    $0xa068,%rsp
  402ad3:	5b                   	pop    %rbx
  402ad4:	5d                   	pop    %rbp
  402ad5:	41 5c                	pop    %r12
  402ad7:	41 5d                	pop    %r13
  402ad9:	41 5e                	pop    %r14
  402adb:	41 5f                	pop    %r15
  402add:	c3                   	retq   
  402ade:	48 b8 45 72 72 6f 72 	movabs $0x43203a726f727245,%rax
  402ae5:	3a 20 43 
  402ae8:	48 ba 6c 69 65 6e 74 	movabs $0x6e7520746e65696c,%rdx
  402aef:	20 75 6e 
  402af2:	48 89 45 00          	mov    %rax,0x0(%rbp)
  402af6:	48 89 55 08          	mov    %rdx,0x8(%rbp)
  402afa:	48 b8 61 62 6c 65 20 	movabs $0x206f7420656c6261,%rax
  402b01:	74 6f 20 
  402b04:	48 ba 63 72 65 61 74 	movabs $0x7320657461657263,%rdx
  402b0b:	65 20 73 
  402b0e:	48 89 45 10          	mov    %rax,0x10(%rbp)
  402b12:	48 89 55 18          	mov    %rdx,0x18(%rbp)
  402b16:	c7 45 20 6f 63 6b 65 	movl   $0x656b636f,0x20(%rbp)
  402b1d:	66 c7 45 24 74 00    	movw   $0x74,0x24(%rbp)
  402b23:	b8 ff ff ff ff       	mov    $0xffffffff,%eax
  402b28:	eb 8b                	jmp    402ab5 <submitr+0x2ec>
  402b2a:	48 b8 45 72 72 6f 72 	movabs $0x44203a726f727245,%rax
  402b31:	3a 20 44 
  402b34:	48 ba 4e 53 20 69 73 	movabs $0x6e7520736920534e,%rdx
  402b3b:	20 75 6e 
  402b3e:	48 89 45 00          	mov    %rax,0x0(%rbp)
  402b42:	48 89 55 08          	mov    %rdx,0x8(%rbp)
  402b46:	48 b8 61 62 6c 65 20 	movabs $0x206f7420656c6261,%rax
  402b4d:	74 6f 20 
  402b50:	48 ba 72 65 73 6f 6c 	movabs $0x2065766c6f736572,%rdx
  402b57:	76 65 20 
  402b5a:	48 89 45 10          	mov    %rax,0x10(%rbp)
  402b5e:	48 89 55 18          	mov    %rdx,0x18(%rbp)
  402b62:	48 b8 41 75 74 6f 6c 	movabs $0x2062616c6f747541,%rax
  402b69:	61 62 20 
  402b6c:	48 ba 73 65 72 76 65 	movabs $0x6120726576726573,%rdx
  402b73:	72 20 61 
  402b76:	48 89 45 20          	mov    %rax,0x20(%rbp)
  402b7a:	48 89 55 28          	mov    %rdx,0x28(%rbp)
  402b7e:	c7 45 30 64 64 72 65 	movl   $0x65726464,0x30(%rbp)
  402b85:	66 c7 45 34 73 73    	movw   $0x7373,0x34(%rbp)
  402b8b:	c6 45 36 00          	movb   $0x0,0x36(%rbp)
  402b8f:	89 df                	mov    %ebx,%edi
  402b91:	e8 fa e1 ff ff       	callq  400d90 <close@plt>
  402b96:	b8 ff ff ff ff       	mov    $0xffffffff,%eax
  402b9b:	e9 15 ff ff ff       	jmpq   402ab5 <submitr+0x2ec>
  402ba0:	48 b8 45 72 72 6f 72 	movabs $0x55203a726f727245,%rax
  402ba7:	3a 20 55 
  402baa:	48 ba 6e 61 62 6c 65 	movabs $0x6f7420656c62616e,%rdx
  402bb1:	20 74 6f 
  402bb4:	48 89 45 00          	mov    %rax,0x0(%rbp)
  402bb8:	48 89 55 08          	mov    %rdx,0x8(%rbp)
  402bbc:	48 b8 20 63 6f 6e 6e 	movabs $0x7463656e6e6f6320,%rax
  402bc3:	65 63 74 
  402bc6:	48 ba 20 74 6f 20 74 	movabs $0x20656874206f7420,%rdx
  402bcd:	68 65 20 
  402bd0:	48 89 45 10          	mov    %rax,0x10(%rbp)
  402bd4:	48 89 55 18          	mov    %rdx,0x18(%rbp)
  402bd8:	48 b8 41 75 74 6f 6c 	movabs $0x2062616c6f747541,%rax
  402bdf:	61 62 20 
  402be2:	48 89 45 20          	mov    %rax,0x20(%rbp)
  402be6:	c7 45 28 73 65 72 76 	movl   $0x76726573,0x28(%rbp)
  402bed:	66 c7 45 2c 65 72    	movw   $0x7265,0x2c(%rbp)
  402bf3:	c6 45 2e 00          	movb   $0x0,0x2e(%rbp)
  402bf7:	89 df                	mov    %ebx,%edi
  402bf9:	e8 92 e1 ff ff       	callq  400d90 <close@plt>
  402bfe:	b8 ff ff ff ff       	mov    $0xffffffff,%eax
  402c03:	e9 ad fe ff ff       	jmpq   402ab5 <submitr+0x2ec>
  402c08:	48 b8 45 72 72 6f 72 	movabs $0x52203a726f727245,%rax
  402c0f:	3a 20 52 
  402c12:	48 ba 65 73 75 6c 74 	movabs $0x747320746c757365,%rdx
  402c19:	20 73 74 
  402c1c:	48 89 45 00          	mov    %rax,0x0(%rbp)
  402c20:	48 89 55 08          	mov    %rdx,0x8(%rbp)
  402c24:	48 b8 72 69 6e 67 20 	movabs $0x6f6f7420676e6972,%rax
  402c2b:	74 6f 6f 
  402c2e:	48 ba 20 6c 61 72 67 	movabs $0x202e656772616c20,%rdx
  402c35:	65 2e 20 
  402c38:	48 89 45 10          	mov    %rax,0x10(%rbp)
  402c3c:	48 89 55 18          	mov    %rdx,0x18(%rbp)
  402c40:	48 b8 49 6e 63 72 65 	movabs $0x6573616572636e49,%rax
  402c47:	61 73 65 
  402c4a:	48 ba 20 53 55 42 4d 	movabs $0x5254494d42555320,%rdx
  402c51:	49 54 52 
  402c54:	48 89 45 20          	mov    %rax,0x20(%rbp)
  402c58:	48 89 55 28          	mov    %rdx,0x28(%rbp)
  402c5c:	48 b8 5f 4d 41 58 42 	movabs $0x46554258414d5f,%rax
  402c63:	55 46 00 
  402c66:	48 89 45 30          	mov    %rax,0x30(%rbp)
  402c6a:	89 df                	mov    %ebx,%edi
  402c6c:	e8 1f e1 ff ff       	callq  400d90 <close@plt>
  402c71:	b8 ff ff ff ff       	mov    $0xffffffff,%eax
  402c76:	e9 3a fe ff ff       	jmpq   402ab5 <submitr+0x2ec>
  402c7b:	48 b8 45 72 72 6f 72 	movabs $0x52203a726f727245,%rax
  402c82:	3a 20 52 
  402c85:	48 ba 65 73 75 6c 74 	movabs $0x747320746c757365,%rdx
  402c8c:	20 73 74 
  402c8f:	48 89 45 00          	mov    %rax,0x0(%rbp)
  402c93:	48 89 55 08          	mov    %rdx,0x8(%rbp)
  402c97:	48 b8 72 69 6e 67 20 	movabs $0x6e6f6320676e6972,%rax
  402c9e:	63 6f 6e 
  402ca1:	48 ba 74 61 69 6e 73 	movabs $0x6e6120736e696174,%rdx
  402ca8:	20 61 6e 
  402cab:	48 89 45 10          	mov    %rax,0x10(%rbp)
  402caf:	48 89 55 18          	mov    %rdx,0x18(%rbp)
  402cb3:	48 b8 20 69 6c 6c 65 	movabs $0x6c6167656c6c6920,%rax
  402cba:	67 61 6c 
  402cbd:	48 ba 20 6f 72 20 75 	movabs $0x72706e7520726f20,%rdx
  402cc4:	6e 70 72 
  402cc7:	48 89 45 20          	mov    %rax,0x20(%rbp)
  402ccb:	48 89 55 28          	mov    %rdx,0x28(%rbp)
  402ccf:	48 b8 69 6e 74 61 62 	movabs $0x20656c6261746e69,%rax
  402cd6:	6c 65 20 
  402cd9:	48 ba 63 68 61 72 61 	movabs $0x6574636172616863,%rdx
  402ce0:	63 74 65 
  402ce3:	48 89 45 30          	mov    %rax,0x30(%rbp)
  402ce7:	48 89 55 38          	mov    %rdx,0x38(%rbp)
  402ceb:	66 c7 45 40 72 2e    	movw   $0x2e72,0x40(%rbp)
  402cf1:	c6 45 42 00          	movb   $0x0,0x42(%rbp)
  402cf5:	89 df                	mov    %ebx,%edi
  402cf7:	e8 94 e0 ff ff       	callq  400d90 <close@plt>
  402cfc:	b8 ff ff ff ff       	mov    $0xffffffff,%eax
  402d01:	e9 af fd ff ff       	jmpq   402ab5 <submitr+0x2ec>
  402d06:	48 b8 45 72 72 6f 72 	movabs $0x43203a726f727245,%rax
  402d0d:	3a 20 43 
  402d10:	48 ba 6c 69 65 6e 74 	movabs $0x6e7520746e65696c,%rdx
  402d17:	20 75 6e 
  402d1a:	48 89 45 00          	mov    %rax,0x0(%rbp)
  402d1e:	48 89 55 08          	mov    %rdx,0x8(%rbp)
  402d22:	48 b8 61 62 6c 65 20 	movabs $0x206f7420656c6261,%rax
  402d29:	74 6f 20 
  402d2c:	48 ba 77 72 69 74 65 	movabs $0x6f74206574697277,%rdx
  402d33:	20 74 6f 
  402d36:	48 89 45 10          	mov    %rax,0x10(%rbp)
  402d3a:	48 89 55 18          	mov    %rdx,0x18(%rbp)
  402d3e:	48 b8 20 74 68 65 20 	movabs $0x7475412065687420,%rax
  402d45:	41 75 74 
  402d48:	48 ba 6f 6c 61 62 20 	movabs $0x7265732062616c6f,%rdx
  402d4f:	73 65 72 
  402d52:	48 89 45 20          	mov    %rax,0x20(%rbp)
  402d56:	48 89 55 28          	mov    %rdx,0x28(%rbp)
  402d5a:	c7 45 30 76 65 72 00 	movl   $0x726576,0x30(%rbp)
  402d61:	89 df                	mov    %ebx,%edi
  402d63:	e8 28 e0 ff ff       	callq  400d90 <close@plt>
  402d68:	b8 ff ff ff ff       	mov    $0xffffffff,%eax
  402d6d:	e9 43 fd ff ff       	jmpq   402ab5 <submitr+0x2ec>
  402d72:	48 b8 45 72 72 6f 72 	movabs $0x43203a726f727245,%rax
  402d79:	3a 20 43 
  402d7c:	48 ba 6c 69 65 6e 74 	movabs $0x6e7520746e65696c,%rdx
  402d83:	20 75 6e 
  402d86:	48 89 45 00          	mov    %rax,0x0(%rbp)
  402d8a:	48 89 55 08          	mov    %rdx,0x8(%rbp)
  402d8e:	48 b8 61 62 6c 65 20 	movabs $0x206f7420656c6261,%rax
  402d95:	74 6f 20 
  402d98:	48 ba 72 65 61 64 20 	movabs $0x7269662064616572,%rdx
  402d9f:	66 69 72 
  402da2:	48 89 45 10          	mov    %rax,0x10(%rbp)
  402da6:	48 89 55 18          	mov    %rdx,0x18(%rbp)
  402daa:	48 b8 73 74 20 68 65 	movabs $0x6564616568207473,%rax
  402db1:	61 64 65 
  402db4:	48 ba 72 20 66 72 6f 	movabs $0x41206d6f72662072,%rdx
  402dbb:	6d 20 41 
  402dbe:	48 89 45 20          	mov    %rax,0x20(%rbp)
  402dc2:	48 89 55 28          	mov    %rdx,0x28(%rbp)
  402dc6:	48 b8 75 74 6f 6c 61 	movabs $0x732062616c6f7475,%rax
  402dcd:	62 20 73 
  402dd0:	48 89 45 30          	mov    %rax,0x30(%rbp)
  402dd4:	c7 45 38 65 72 76 65 	movl   $0x65767265,0x38(%rbp)
  402ddb:	66 c7 45 3c 72 00    	movw   $0x72,0x3c(%rbp)
  402de1:	89 df                	mov    %ebx,%edi
  402de3:	e8 a8 df ff ff       	callq  400d90 <close@plt>
  402de8:	b8 ff ff ff ff       	mov    $0xffffffff,%eax
  402ded:	e9 c3 fc ff ff       	jmpq   402ab5 <submitr+0x2ec>
  402df2:	48 8d b4 24 50 20 00 	lea    0x2050(%rsp),%rsi
  402df9:	00 
  402dfa:	48 8d 7c 24 40       	lea    0x40(%rsp),%rdi
  402dff:	ba 00 20 00 00       	mov    $0x2000,%edx
  402e04:	e8 09 f8 ff ff       	callq  402612 <rio_readlineb>
  402e09:	48 85 c0             	test   %rax,%rax
  402e0c:	0f 8e 96 00 00 00    	jle    402ea8 <submitr+0x6df>
  402e12:	44 8b 44 24 2c       	mov    0x2c(%rsp),%r8d
  402e17:	41 81 f8 c8 00 00 00 	cmp    $0xc8,%r8d
  402e1e:	0f 85 05 01 00 00    	jne    402f29 <submitr+0x760>
  402e24:	48 8d b4 24 50 20 00 	lea    0x2050(%rsp),%rsi
  402e2b:	00 
  402e2c:	48 89 ef             	mov    %rbp,%rdi
  402e2f:	e8 fc de ff ff       	callq  400d30 <strcpy@plt>
  402e34:	89 df                	mov    %ebx,%edi
  402e36:	e8 55 df ff ff       	callq  400d90 <close@plt>
  402e3b:	b9 04 00 00 00       	mov    $0x4,%ecx
  402e40:	48 8d 3d 19 0d 00 00 	lea    0xd19(%rip),%rdi        # 403b60 <trans_char+0xe0>
  402e47:	48 89 ee             	mov    %rbp,%rsi
  402e4a:	f3 a6                	repz cmpsb %es:(%rdi),%ds:(%rsi)
  402e4c:	0f 97 c0             	seta   %al
  402e4f:	1c 00                	sbb    $0x0,%al
  402e51:	0f be c0             	movsbl %al,%eax
  402e54:	85 c0                	test   %eax,%eax
  402e56:	0f 84 59 fc ff ff    	je     402ab5 <submitr+0x2ec>
  402e5c:	b9 05 00 00 00       	mov    $0x5,%ecx
  402e61:	48 8d 3d fc 0c 00 00 	lea    0xcfc(%rip),%rdi        # 403b64 <trans_char+0xe4>
  402e68:	48 89 ee             	mov    %rbp,%rsi
  402e6b:	f3 a6                	repz cmpsb %es:(%rdi),%ds:(%rsi)
  402e6d:	0f 97 c0             	seta   %al
  402e70:	1c 00                	sbb    $0x0,%al
  402e72:	0f be c0             	movsbl %al,%eax
  402e75:	85 c0                	test   %eax,%eax
  402e77:	0f 84 38 fc ff ff    	je     402ab5 <submitr+0x2ec>
  402e7d:	b9 03 00 00 00       	mov    $0x3,%ecx
  402e82:	48 8d 3d e0 0c 00 00 	lea    0xce0(%rip),%rdi        # 403b69 <trans_char+0xe9>
  402e89:	48 89 ee             	mov    %rbp,%rsi
  402e8c:	f3 a6                	repz cmpsb %es:(%rdi),%ds:(%rsi)
  402e8e:	0f 97 c0             	seta   %al
  402e91:	1c 00                	sbb    $0x0,%al
  402e93:	0f be c0             	movsbl %al,%eax
  402e96:	85 c0                	test   %eax,%eax
  402e98:	0f 84 17 fc ff ff    	je     402ab5 <submitr+0x2ec>
  402e9e:	b8 ff ff ff ff       	mov    $0xffffffff,%eax
  402ea3:	e9 0d fc ff ff       	jmpq   402ab5 <submitr+0x2ec>
  402ea8:	48 b8 45 72 72 6f 72 	movabs $0x43203a726f727245,%rax
  402eaf:	3a 20 43 
  402eb2:	48 ba 6c 69 65 6e 74 	movabs $0x6e7520746e65696c,%rdx
  402eb9:	20 75 6e 
  402ebc:	48 89 45 00          	mov    %rax,0x0(%rbp)
  402ec0:	48 89 55 08          	mov    %rdx,0x8(%rbp)
  402ec4:	48 b8 61 62 6c 65 20 	movabs $0x206f7420656c6261,%rax
  402ecb:	74 6f 20 
  402ece:	48 ba 72 65 61 64 20 	movabs $0x6174732064616572,%rdx
  402ed5:	73 74 61 
  402ed8:	48 89 45 10          	mov    %rax,0x10(%rbp)
  402edc:	48 89 55 18          	mov    %rdx,0x18(%rbp)
  402ee0:	48 b8 74 75 73 20 6d 	movabs $0x7373656d20737574,%rax
  402ee7:	65 73 73 
  402eea:	48 ba 61 67 65 20 66 	movabs $0x6d6f726620656761,%rdx
  402ef1:	72 6f 6d 
  402ef4:	48 89 45 20          	mov    %rax,0x20(%rbp)
  402ef8:	48 89 55 28          	mov    %rdx,0x28(%rbp)
  402efc:	48 b8 20 41 75 74 6f 	movabs $0x62616c6f74754120,%rax
  402f03:	6c 61 62 
  402f06:	48 ba 20 73 65 72 76 	movabs $0x72657672657320,%rdx
  402f0d:	65 72 00 
  402f10:	48 89 45 30          	mov    %rax,0x30(%rbp)
  402f14:	48 89 55 38          	mov    %rdx,0x38(%rbp)
  402f18:	89 df                	mov    %ebx,%edi
  402f1a:	e8 71 de ff ff       	callq  400d90 <close@plt>
  402f1f:	b8 ff ff ff ff       	mov    $0xffffffff,%eax
  402f24:	e9 8c fb ff ff       	jmpq   402ab5 <submitr+0x2ec>
  402f29:	4c 8d 8c 24 50 80 00 	lea    0x8050(%rsp),%r9
  402f30:	00 
  402f31:	48 8d 0d e0 0b 00 00 	lea    0xbe0(%rip),%rcx        # 403b18 <trans_char+0x98>
  402f38:	48 c7 c2 ff ff ff ff 	mov    $0xffffffffffffffff,%rdx
  402f3f:	be 01 00 00 00       	mov    $0x1,%esi
  402f44:	48 89 ef             	mov    %rbp,%rdi
  402f47:	b8 00 00 00 00       	mov    $0x0,%eax
  402f4c:	e8 8f df ff ff       	callq  400ee0 <__sprintf_chk@plt>
  402f51:	89 df                	mov    %ebx,%edi
  402f53:	e8 38 de ff ff       	callq  400d90 <close@plt>
  402f58:	b8 ff ff ff ff       	mov    $0xffffffff,%eax
  402f5d:	e9 53 fb ff ff       	jmpq   402ab5 <submitr+0x2ec>
  402f62:	e8 9e f3 ff ff       	callq  402305 <__stack_chk_fail>

0000000000402f67 <init_timeout>:
  402f67:	85 ff                	test   %edi,%edi
  402f69:	74 28                	je     402f93 <init_timeout+0x2c>
  402f6b:	53                   	push   %rbx
  402f6c:	89 fb                	mov    %edi,%ebx
  402f6e:	85 ff                	test   %edi,%edi
  402f70:	78 1a                	js     402f8c <init_timeout+0x25>
  402f72:	48 8d 35 80 f5 ff ff 	lea    -0xa80(%rip),%rsi        # 4024f9 <sigalrm_handler>
  402f79:	bf 0e 00 00 00       	mov    $0xe,%edi
  402f7e:	e8 3d de ff ff       	callq  400dc0 <signal@plt>
  402f83:	89 df                	mov    %ebx,%edi
  402f85:	e8 f6 dd ff ff       	callq  400d80 <alarm@plt>
  402f8a:	5b                   	pop    %rbx
  402f8b:	c3                   	retq   
  402f8c:	bb 00 00 00 00       	mov    $0x0,%ebx
  402f91:	eb df                	jmp    402f72 <init_timeout+0xb>
  402f93:	f3 c3                	repz retq 

0000000000402f95 <init_driver>:
  402f95:	41 54                	push   %r12
  402f97:	55                   	push   %rbp
  402f98:	53                   	push   %rbx
  402f99:	48 83 ec 20          	sub    $0x20,%rsp
  402f9d:	49 89 fc             	mov    %rdi,%r12
  402fa0:	64 48 8b 04 25 28 00 	mov    %fs:0x28,%rax
  402fa7:	00 00 
  402fa9:	48 89 44 24 18       	mov    %rax,0x18(%rsp)
  402fae:	31 c0                	xor    %eax,%eax
  402fb0:	be 01 00 00 00       	mov    $0x1,%esi
  402fb5:	bf 0d 00 00 00       	mov    $0xd,%edi
  402fba:	e8 01 de ff ff       	callq  400dc0 <signal@plt>
  402fbf:	be 01 00 00 00       	mov    $0x1,%esi
  402fc4:	bf 1d 00 00 00       	mov    $0x1d,%edi
  402fc9:	e8 f2 dd ff ff       	callq  400dc0 <signal@plt>
  402fce:	be 01 00 00 00       	mov    $0x1,%esi
  402fd3:	bf 1d 00 00 00       	mov    $0x1d,%edi
  402fd8:	e8 e3 dd ff ff       	callq  400dc0 <signal@plt>
  402fdd:	ba 00 00 00 00       	mov    $0x0,%edx
  402fe2:	be 01 00 00 00       	mov    $0x1,%esi
  402fe7:	bf 02 00 00 00       	mov    $0x2,%edi
  402fec:	e8 ff de ff ff       	callq  400ef0 <socket@plt>
  402ff1:	85 c0                	test   %eax,%eax
  402ff3:	0f 88 a3 00 00 00    	js     40309c <init_driver+0x107>
  402ff9:	89 c3                	mov    %eax,%ebx
  402ffb:	48 8d 3d 6a 0b 00 00 	lea    0xb6a(%rip),%rdi        # 403b6c <trans_char+0xec>
  403002:	e8 c9 dd ff ff       	callq  400dd0 <gethostbyname@plt>
  403007:	48 85 c0             	test   %rax,%rax
  40300a:	0f 84 df 00 00 00    	je     4030ef <init_driver+0x15a>
  403010:	48 89 e5             	mov    %rsp,%rbp
  403013:	48 c7 44 24 02 00 00 	movq   $0x0,0x2(%rsp)
  40301a:	00 00 
  40301c:	c7 45 0a 00 00 00 00 	movl   $0x0,0xa(%rbp)
  403023:	66 c7 45 0e 00 00    	movw   $0x0,0xe(%rbp)
  403029:	66 c7 04 24 02 00    	movw   $0x2,(%rsp)
  40302f:	48 63 50 14          	movslq 0x14(%rax),%rdx
  403033:	48 8b 40 18          	mov    0x18(%rax),%rax
  403037:	48 8b 30             	mov    (%rax),%rsi
  40303a:	48 8d 7d 04          	lea    0x4(%rbp),%rdi
  40303e:	b9 0c 00 00 00       	mov    $0xc,%ecx
  403043:	e8 98 dd ff ff       	callq  400de0 <__memmove_chk@plt>
  403048:	66 c7 44 24 02 0b b8 	movw   $0xb80b,0x2(%rsp)
  40304f:	ba 10 00 00 00       	mov    $0x10,%edx
  403054:	48 89 ee             	mov    %rbp,%rsi
  403057:	89 df                	mov    %ebx,%edi
  403059:	e8 62 de ff ff       	callq  400ec0 <connect@plt>
  40305e:	85 c0                	test   %eax,%eax
  403060:	0f 88 fb 00 00 00    	js     403161 <init_driver+0x1cc>
  403066:	89 df                	mov    %ebx,%edi
  403068:	e8 23 dd ff ff       	callq  400d90 <close@plt>
  40306d:	66 41 c7 04 24 4f 4b 	movw   $0x4b4f,(%r12)
  403074:	41 c6 44 24 02 00    	movb   $0x0,0x2(%r12)
  40307a:	b8 00 00 00 00       	mov    $0x0,%eax
  40307f:	48 8b 4c 24 18       	mov    0x18(%rsp),%rcx
  403084:	64 48 33 0c 25 28 00 	xor    %fs:0x28,%rcx
  40308b:	00 00 
  40308d:	0f 85 28 01 00 00    	jne    4031bb <init_driver+0x226>
  403093:	48 83 c4 20          	add    $0x20,%rsp
  403097:	5b                   	pop    %rbx
  403098:	5d                   	pop    %rbp
  403099:	41 5c                	pop    %r12
  40309b:	c3                   	retq   
  40309c:	48 b8 45 72 72 6f 72 	movabs $0x43203a726f727245,%rax
  4030a3:	3a 20 43 
  4030a6:	48 ba 6c 69 65 6e 74 	movabs $0x6e7520746e65696c,%rdx
  4030ad:	20 75 6e 
  4030b0:	49 89 04 24          	mov    %rax,(%r12)
  4030b4:	49 89 54 24 08       	mov    %rdx,0x8(%r12)
  4030b9:	48 b8 61 62 6c 65 20 	movabs $0x206f7420656c6261,%rax
  4030c0:	74 6f 20 
  4030c3:	48 ba 63 72 65 61 74 	movabs $0x7320657461657263,%rdx
  4030ca:	65 20 73 
  4030cd:	49 89 44 24 10       	mov    %rax,0x10(%r12)
  4030d2:	49 89 54 24 18       	mov    %rdx,0x18(%r12)
  4030d7:	41 c7 44 24 20 6f 63 	movl   $0x656b636f,0x20(%r12)
  4030de:	6b 65 
  4030e0:	66 41 c7 44 24 24 74 	movw   $0x74,0x24(%r12)
  4030e7:	00 
  4030e8:	b8 ff ff ff ff       	mov    $0xffffffff,%eax
  4030ed:	eb 90                	jmp    40307f <init_driver+0xea>
  4030ef:	48 b8 45 72 72 6f 72 	movabs $0x44203a726f727245,%rax
  4030f6:	3a 20 44 
  4030f9:	48 ba 4e 53 20 69 73 	movabs $0x6e7520736920534e,%rdx
  403100:	20 75 6e 
  403103:	49 89 04 24          	mov    %rax,(%r12)
  403107:	49 89 54 24 08       	mov    %rdx,0x8(%r12)
  40310c:	48 b8 61 62 6c 65 20 	movabs $0x206f7420656c6261,%rax
  403113:	74 6f 20 
  403116:	48 ba 72 65 73 6f 6c 	movabs $0x2065766c6f736572,%rdx
  40311d:	76 65 20 
  403120:	49 89 44 24 10       	mov    %rax,0x10(%r12)
  403125:	49 89 54 24 18       	mov    %rdx,0x18(%r12)
  40312a:	48 b8 73 65 72 76 65 	movabs $0x6120726576726573,%rax
  403131:	72 20 61 
  403134:	49 89 44 24 20       	mov    %rax,0x20(%r12)
  403139:	41 c7 44 24 28 64 64 	movl   $0x65726464,0x28(%r12)
  403140:	72 65 
  403142:	66 41 c7 44 24 2c 73 	movw   $0x7373,0x2c(%r12)
  403149:	73 
  40314a:	41 c6 44 24 2e 00    	movb   $0x0,0x2e(%r12)
  403150:	89 df                	mov    %ebx,%edi
  403152:	e8 39 dc ff ff       	callq  400d90 <close@plt>
  403157:	b8 ff ff ff ff       	mov    $0xffffffff,%eax
  40315c:	e9 1e ff ff ff       	jmpq   40307f <init_driver+0xea>
  403161:	48 b8 45 72 72 6f 72 	movabs $0x55203a726f727245,%rax
  403168:	3a 20 55 
  40316b:	48 ba 6e 61 62 6c 65 	movabs $0x6f7420656c62616e,%rdx
  403172:	20 74 6f 
  403175:	49 89 04 24          	mov    %rax,(%r12)
  403179:	49 89 54 24 08       	mov    %rdx,0x8(%r12)
  40317e:	48 b8 20 63 6f 6e 6e 	movabs $0x7463656e6e6f6320,%rax
  403185:	65 63 74 
  403188:	48 ba 20 74 6f 20 73 	movabs $0x76726573206f7420,%rdx
  40318f:	65 72 76 
  403192:	49 89 44 24 10       	mov    %rax,0x10(%r12)
  403197:	49 89 54 24 18       	mov    %rdx,0x18(%r12)
  40319c:	66 41 c7 44 24 20 65 	movw   $0x7265,0x20(%r12)
  4031a3:	72 
  4031a4:	41 c6 44 24 22 00    	movb   $0x0,0x22(%r12)
  4031aa:	89 df                	mov    %ebx,%edi
  4031ac:	e8 df db ff ff       	callq  400d90 <close@plt>
  4031b1:	b8 ff ff ff ff       	mov    $0xffffffff,%eax
  4031b6:	e9 c4 fe ff ff       	jmpq   40307f <init_driver+0xea>
  4031bb:	e8 45 f1 ff ff       	callq  402305 <__stack_chk_fail>

00000000004031c0 <driver_post>:
  4031c0:	53                   	push   %rbx
  4031c1:	4c 89 cb             	mov    %r9,%rbx
  4031c4:	45 85 c0             	test   %r8d,%r8d
  4031c7:	75 18                	jne    4031e1 <driver_post+0x21>
  4031c9:	48 85 ff             	test   %rdi,%rdi
  4031cc:	74 05                	je     4031d3 <driver_post+0x13>
  4031ce:	80 3f 00             	cmpb   $0x0,(%rdi)
  4031d1:	75 37                	jne    40320a <driver_post+0x4a>
  4031d3:	66 c7 03 4f 4b       	movw   $0x4b4f,(%rbx)
  4031d8:	c6 43 02 00          	movb   $0x0,0x2(%rbx)
  4031dc:	44 89 c0             	mov    %r8d,%eax
  4031df:	5b                   	pop    %rbx
  4031e0:	c3                   	retq   
  4031e1:	48 89 ca             	mov    %rcx,%rdx
  4031e4:	48 8d 35 91 09 00 00 	lea    0x991(%rip),%rsi        # 403b7c <trans_char+0xfc>
  4031eb:	bf 01 00 00 00       	mov    $0x1,%edi
  4031f0:	b8 00 00 00 00       	mov    $0x0,%eax
  4031f5:	e8 66 dc ff ff       	callq  400e60 <__printf_chk@plt>
  4031fa:	66 c7 03 4f 4b       	movw   $0x4b4f,(%rbx)
  4031ff:	c6 43 02 00          	movb   $0x0,0x2(%rbx)
  403203:	b8 00 00 00 00       	mov    $0x0,%eax
  403208:	eb d5                	jmp    4031df <driver_post+0x1f>
  40320a:	48 83 ec 08          	sub    $0x8,%rsp
  40320e:	41 51                	push   %r9
  403210:	49 89 c9             	mov    %rcx,%r9
  403213:	49 89 d0             	mov    %rdx,%r8
  403216:	48 89 f9             	mov    %rdi,%rcx
  403219:	48 89 f2             	mov    %rsi,%rdx
  40321c:	be b8 0b 00 00       	mov    $0xbb8,%esi
  403221:	48 8d 3d 44 09 00 00 	lea    0x944(%rip),%rdi        # 403b6c <trans_char+0xec>
  403228:	e8 9c f5 ff ff       	callq  4027c9 <submitr>
  40322d:	48 83 c4 10          	add    $0x10,%rsp
  403231:	eb ac                	jmp    4031df <driver_post+0x1f>

0000000000403233 <check>:
  403233:	89 f8                	mov    %edi,%eax
  403235:	c1 e8 1c             	shr    $0x1c,%eax
  403238:	85 c0                	test   %eax,%eax
  40323a:	74 1d                	je     403259 <check+0x26>
  40323c:	b9 00 00 00 00       	mov    $0x0,%ecx
  403241:	83 f9 1f             	cmp    $0x1f,%ecx
  403244:	7f 0d                	jg     403253 <check+0x20>
  403246:	89 f8                	mov    %edi,%eax
  403248:	d3 e8                	shr    %cl,%eax
  40324a:	3c 0a                	cmp    $0xa,%al
  40324c:	74 11                	je     40325f <check+0x2c>
  40324e:	83 c1 08             	add    $0x8,%ecx
  403251:	eb ee                	jmp    403241 <check+0xe>
  403253:	b8 01 00 00 00       	mov    $0x1,%eax
  403258:	c3                   	retq   
  403259:	b8 00 00 00 00       	mov    $0x0,%eax
  40325e:	c3                   	retq   
  40325f:	b8 00 00 00 00       	mov    $0x0,%eax
  403264:	c3                   	retq   

0000000000403265 <gencookie>:
  403265:	53                   	push   %rbx
  403266:	83 c7 01             	add    $0x1,%edi
  403269:	e8 92 da ff ff       	callq  400d00 <srandom@plt>
  40326e:	e8 ad db ff ff       	callq  400e20 <random@plt>
  403273:	89 c3                	mov    %eax,%ebx
  403275:	89 c7                	mov    %eax,%edi
  403277:	e8 b7 ff ff ff       	callq  403233 <check>
  40327c:	85 c0                	test   %eax,%eax
  40327e:	74 ee                	je     40326e <gencookie+0x9>
  403280:	89 d8                	mov    %ebx,%eax
  403282:	5b                   	pop    %rbx
  403283:	c3                   	retq   
  403284:	66 2e 0f 1f 84 00 00 	nopw   %cs:0x0(%rax,%rax,1)
  40328b:	00 00 00 
  40328e:	66 90                	xchg   %ax,%ax

0000000000403290 <__libc_csu_init>:
  403290:	41 57                	push   %r15
  403292:	41 56                	push   %r14
  403294:	49 89 d7             	mov    %rdx,%r15
  403297:	41 55                	push   %r13
  403299:	41 54                	push   %r12
  40329b:	4c 8d 25 5e 1b 20 00 	lea    0x201b5e(%rip),%r12        # 604e00 <__frame_dummy_init_array_entry>
  4032a2:	55                   	push   %rbp
  4032a3:	48 8d 2d 5e 1b 20 00 	lea    0x201b5e(%rip),%rbp        # 604e08 <__init_array_end>
  4032aa:	53                   	push   %rbx
  4032ab:	41 89 fd             	mov    %edi,%r13d
  4032ae:	49 89 f6             	mov    %rsi,%r14
  4032b1:	4c 29 e5             	sub    %r12,%rbp
  4032b4:	48 83 ec 08          	sub    $0x8,%rsp
  4032b8:	48 c1 fd 03          	sar    $0x3,%rbp
  4032bc:	e8 ef d9 ff ff       	callq  400cb0 <_init>
  4032c1:	48 85 ed             	test   %rbp,%rbp
  4032c4:	74 20                	je     4032e6 <__libc_csu_init+0x56>
  4032c6:	31 db                	xor    %ebx,%ebx
  4032c8:	0f 1f 84 00 00 00 00 	nopl   0x0(%rax,%rax,1)
  4032cf:	00 
  4032d0:	4c 89 fa             	mov    %r15,%rdx
  4032d3:	4c 89 f6             	mov    %r14,%rsi
  4032d6:	44 89 ef             	mov    %r13d,%edi
  4032d9:	41 ff 14 dc          	callq  *(%r12,%rbx,8)
  4032dd:	48 83 c3 01          	add    $0x1,%rbx
  4032e1:	48 39 dd             	cmp    %rbx,%rbp
  4032e4:	75 ea                	jne    4032d0 <__libc_csu_init+0x40>
  4032e6:	48 83 c4 08          	add    $0x8,%rsp
  4032ea:	5b                   	pop    %rbx
  4032eb:	5d                   	pop    %rbp
  4032ec:	41 5c                	pop    %r12
  4032ee:	41 5d                	pop    %r13
  4032f0:	41 5e                	pop    %r14
  4032f2:	41 5f                	pop    %r15
  4032f4:	c3                   	retq   
  4032f5:	90                   	nop
  4032f6:	66 2e 0f 1f 84 00 00 	nopw   %cs:0x0(%rax,%rax,1)
  4032fd:	00 00 00 

0000000000403300 <__libc_csu_fini>:
  403300:	f3 c3                	repz retq 

Disassembly of section .fini:

0000000000403304 <_fini>:
  403304:	48 83 ec 08          	sub    $0x8,%rsp
  403308:	48 83 c4 08          	add    $0x8,%rsp
  40330c:	c3                   	retq   
